(lp0
(S'UNITID'
p1
c__builtin__
str
p2
tp3
a(S'OPEID'
p4
g2
tp5
a(S'OPEID6'
p6
g2
tp7
a(S'INSTNM'
p8
g2
tp9
a(S'CITY'
p10
g2
tp11
a(S'STABBR'
p12
g2
tp13
a(S'ZIP'
p14
g2
tp15
a(S'ACCREDAGENCY'
p16
g2
tp17
a(S'INSTURL'
p18
g2
tp19
a(S'NPCURL'
p20
g2
tp21
a(S'SCH_DEG'
p22
c__builtin__
int
p23
tp24
a(S'HCM2'
p25
g2
tp26
a(S'MAIN'
p27
c__builtin__
bool
p28
tp29
a(S'NUMBRANCH'
p30
g23
tp31
a(S'PREDDEG'
p32
g2
tp33
a(S'HIGHDEG'
p34
g23
tp35
a(S'CONTROL'
p36
g2
tp37
a(S'ST_FIPS'
p38
g2
tp39
a(S'REGION'
p40
g2
tp41
a(S'LOCALE'
p42
g2
tp43
a(S'LOCALE2'
p44
g2
tp45
a(S'LATITUDE'
p46
g2
tp47
a(S'LONGITUDE'
p48
g2
tp49
a(S'CCBASIC'
p50
g2
tp51
a(S'CCUGPROF'
p52
g2
tp53
a(S'CCSIZSET'
p54
g2
tp55
a(S'HBCU'
p56
g2
tp57
a(S'PBI'
p58
g2
tp59
a(S'ANNHI'
p60
g2
tp61
a(S'TRIBAL'
p62
g2
tp63
a(S'AANAPII'
p64
g2
tp65
a(S'HSI'
p66
g2
tp67
a(S'NANTI'
p68
g2
tp69
a(S'MENONLY'
p70
g2
tp71
a(S'WOMENONLY'
p72
g2
tp73
a(S'RELAFFIL'
p74
g2
tp75
a(S'ADM_RATE'
p76
c__builtin__
float
p77
tp78
a(S'ADM_RATE_ALL'
p79
g77
tp80
a(S'SATVR25'
p81
g77
tp82
a(S'SATVR75'
p83
g77
tp84
a(S'SATMT25'
p85
g77
tp86
a(S'SATMT75'
p87
g77
tp88
a(S'SATWR25'
p89
g77
tp90
a(S'SATWR75'
p91
g77
tp92
a(S'SATVRMID'
p93
g77
tp94
a(S'SATMTMID'
p95
g77
tp96
a(S'SATWRMID'
p97
g77
tp98
a(S'ACTCM25'
p99
g77
tp100
a(S'ACTCM75'
p101
g77
tp102
a(S'ACTEN25'
p103
g77
tp104
a(S'ACTEN75'
p105
g77
tp106
a(S'ACTMT25'
p107
g77
tp108
a(S'ACTMT75'
p109
g77
tp110
a(S'ACTWR25'
p111
g77
tp112
a(S'ACTWR75'
p113
g77
tp114
a(S'ACTCMMID'
p115
g77
tp116
a(S'ACTENMID'
p117
g77
tp118
a(S'ACTMTMID'
p119
g77
tp120
a(S'ACTWRMID'
p121
g77
tp122
a(S'SAT_AVG'
p123
g77
tp124
a(S'SAT_AVG_ALL'
p125
g77
tp126
a(S'PCIP01'
p127
g23
tp128
a(S'PCIP03'
p129
g23
tp130
a(S'PCIP04'
p131
g23
tp132
a(S'PCIP05'
p133
g23
tp134
a(S'PCIP09'
p135
g23
tp136
a(S'PCIP10'
p137
g23
tp138
a(S'PCIP11'
p139
g23
tp140
a(S'PCIP12'
p141
g23
tp142
a(S'PCIP13'
p143
g23
tp144
a(S'PCIP14'
p145
g23
tp146
a(S'PCIP15'
p147
g23
tp148
a(S'PCIP16'
p149
g23
tp150
a(S'PCIP19'
p151
g23
tp152
a(S'PCIP22'
p153
g23
tp154
a(S'PCIP23'
p155
g23
tp156
a(S'PCIP24'
p157
g23
tp158
a(S'PCIP25'
p159
g23
tp160
a(S'PCIP26'
p161
g23
tp162
a(S'PCIP27'
p163
g23
tp164
a(S'PCIP29'
p165
g23
tp166
a(S'PCIP30'
p167
g23
tp168
a(S'PCIP31'
p169
g23
tp170
a(S'PCIP38'
p171
g23
tp172
a(S'PCIP39'
p173
g23
tp174
a(S'PCIP40'
p175
g23
tp176
a(S'PCIP41'
p177
g23
tp178
a(S'PCIP42'
p179
g23
tp180
a(S'PCIP43'
p181
g23
tp182
a(S'PCIP44'
p183
g23
tp184
a(S'PCIP45'
p185
g23
tp186
a(S'PCIP46'
p187
g23
tp188
a(S'PCIP47'
p189
g23
tp190
a(S'PCIP48'
p191
g23
tp192
a(S'PCIP49'
p193
g23
tp194
a(S'PCIP50'
p195
g23
tp196
a(S'PCIP51'
p197
g23
tp198
a(S'PCIP52'
p199
g23
tp200
a(S'PCIP54'
p201
g23
tp202
a(S'CIP01CERT1'
p203
g23
tp204
a(S'CIP01CERT2'
p205
g23
tp206
a(S'CIP01ASSOC'
p207
g23
tp208
a(S'CIP01CERT4'
p209
g23
tp210
a(S'CIP01BACHL'
p211
g23
tp212
a(S'CIP03CERT1'
p213
g23
tp214
a(S'CIP03CERT2'
p215
g23
tp216
a(S'CIP03ASSOC'
p217
g23
tp218
a(S'CIP03CERT4'
p219
g23
tp220
a(S'CIP03BACHL'
p221
g23
tp222
a(S'CIP04CERT1'
p223
g23
tp224
a(S'CIP04CERT2'
p225
g23
tp226
a(S'CIP04ASSOC'
p227
g23
tp228
a(S'CIP04CERT4'
p229
g23
tp230
a(S'CIP04BACHL'
p231
g23
tp232
a(S'CIP05CERT1'
p233
g23
tp234
a(S'CIP05CERT2'
p235
g23
tp236
a(S'CIP05ASSOC'
p237
g23
tp238
a(S'CIP05CERT4'
p239
g23
tp240
a(S'CIP05BACHL'
p241
g23
tp242
a(S'CIP09CERT1'
p243
g23
tp244
a(S'CIP09CERT2'
p245
g23
tp246
a(S'CIP09ASSOC'
p247
g23
tp248
a(S'CIP09CERT4'
p249
g23
tp250
a(S'CIP09BACHL'
p251
g23
tp252
a(S'CIP10CERT1'
p253
g23
tp254
a(S'CIP10CERT2'
p255
g23
tp256
a(S'CIP10ASSOC'
p257
g23
tp258
a(S'CIP10CERT4'
p259
g23
tp260
a(S'CIP10BACHL'
p261
g23
tp262
a(S'CIP11CERT1'
p263
g23
tp264
a(S'CIP11CERT2'
p265
g23
tp266
a(S'CIP11ASSOC'
p267
g23
tp268
a(S'CIP11CERT4'
p269
g23
tp270
a(S'CIP11BACHL'
p271
g23
tp272
a(S'CIP12CERT1'
p273
g23
tp274
a(S'CIP12CERT2'
p275
g23
tp276
a(S'CIP12ASSOC'
p277
g23
tp278
a(S'CIP12CERT4'
p279
g23
tp280
a(S'CIP12BACHL'
p281
g23
tp282
a(S'CIP13CERT1'
p283
g23
tp284
a(S'CIP13CERT2'
p285
g23
tp286
a(S'CIP13ASSOC'
p287
g23
tp288
a(S'CIP13CERT4'
p289
g23
tp290
a(S'CIP13BACHL'
p291
g23
tp292
a(S'CIP14CERT1'
p293
g23
tp294
a(S'CIP14CERT2'
p295
g23
tp296
a(S'CIP14ASSOC'
p297
g23
tp298
a(S'CIP14CERT4'
p299
g23
tp300
a(S'CIP14BACHL'
p301
g23
tp302
a(S'CIP15CERT1'
p303
g23
tp304
a(S'CIP15CERT2'
p305
g23
tp306
a(S'CIP15ASSOC'
p307
g23
tp308
a(S'CIP15CERT4'
p309
g23
tp310
a(S'CIP15BACHL'
p311
g23
tp312
a(S'CIP16CERT1'
p313
g23
tp314
a(S'CIP16CERT2'
p315
g23
tp316
a(S'CIP16ASSOC'
p317
g23
tp318
a(S'CIP16CERT4'
p319
g23
tp320
a(S'CIP16BACHL'
p321
g23
tp322
a(S'CIP19CERT1'
p323
g23
tp324
a(S'CIP19CERT2'
p325
g23
tp326
a(S'CIP19ASSOC'
p327
g23
tp328
a(S'CIP19CERT4'
p329
g23
tp330
a(S'CIP19BACHL'
p331
g23
tp332
a(S'CIP22CERT1'
p333
g23
tp334
a(S'CIP22CERT2'
p335
g23
tp336
a(S'CIP22ASSOC'
p337
g23
tp338
a(S'CIP22CERT4'
p339
g23
tp340
a(S'CIP22BACHL'
p341
g23
tp342
a(S'CIP23CERT1'
p343
g23
tp344
a(S'CIP23CERT2'
p345
g23
tp346
a(S'CIP23ASSOC'
p347
g23
tp348
a(S'CIP23CERT4'
p349
g23
tp350
a(S'CIP23BACHL'
p351
g23
tp352
a(S'CIP24CERT1'
p353
g23
tp354
a(S'CIP24CERT2'
p355
g23
tp356
a(S'CIP24ASSOC'
p357
g23
tp358
a(S'CIP24CERT4'
p359
g23
tp360
a(S'CIP24BACHL'
p361
g23
tp362
a(S'CIP25CERT1'
p363
g23
tp364
a(S'CIP25CERT2'
p365
g23
tp366
a(S'CIP25ASSOC'
p367
g23
tp368
a(S'CIP25CERT4'
p369
g23
tp370
a(S'CIP25BACHL'
p371
g23
tp372
a(S'CIP26CERT1'
p373
g23
tp374
a(S'CIP26CERT2'
p375
g23
tp376
a(S'CIP26ASSOC'
p377
g23
tp378
a(S'CIP26CERT4'
p379
g23
tp380
a(S'CIP26BACHL'
p381
g23
tp382
a(S'CIP27CERT1'
p383
g23
tp384
a(S'CIP27CERT2'
p385
g23
tp386
a(S'CIP27ASSOC'
p387
g23
tp388
a(S'CIP27CERT4'
p389
g23
tp390
a(S'CIP27BACHL'
p391
g23
tp392
a(S'CIP29CERT1'
p393
g23
tp394
a(S'CIP29CERT2'
p395
g23
tp396
a(S'CIP29ASSOC'
p397
g23
tp398
a(S'CIP29CERT4'
p399
g23
tp400
a(S'CIP29BACHL'
p401
g23
tp402
a(S'CIP30CERT1'
p403
g23
tp404
a(S'CIP30CERT2'
p405
g23
tp406
a(S'CIP30ASSOC'
p407
g23
tp408
a(S'CIP30CERT4'
p409
g23
tp410
a(S'CIP30BACHL'
p411
g23
tp412
a(S'CIP31CERT1'
p413
g23
tp414
a(S'CIP31CERT2'
p415
g23
tp416
a(S'CIP31ASSOC'
p417
g23
tp418
a(S'CIP31CERT4'
p419
g23
tp420
a(S'CIP31BACHL'
p421
g23
tp422
a(S'CIP38CERT1'
p423
g23
tp424
a(S'CIP38CERT2'
p425
g23
tp426
a(S'CIP38ASSOC'
p427
g23
tp428
a(S'CIP38CERT4'
p429
g23
tp430
a(S'CIP38BACHL'
p431
g23
tp432
a(S'CIP39CERT1'
p433
g23
tp434
a(S'CIP39CERT2'
p435
g23
tp436
a(S'CIP39ASSOC'
p437
g23
tp438
a(S'CIP39CERT4'
p439
g23
tp440
a(S'CIP39BACHL'
p441
g23
tp442
a(S'CIP40CERT1'
p443
g23
tp444
a(S'CIP40CERT2'
p445
g23
tp446
a(S'CIP40ASSOC'
p447
g23
tp448
a(S'CIP40CERT4'
p449
g23
tp450
a(S'CIP40BACHL'
p451
g23
tp452
a(S'CIP41CERT1'
p453
g23
tp454
a(S'CIP41CERT2'
p455
g23
tp456
a(S'CIP41ASSOC'
p457
g23
tp458
a(S'CIP41CERT4'
p459
g23
tp460
a(S'CIP41BACHL'
p461
g23
tp462
a(S'CIP42CERT1'
p463
g23
tp464
a(S'CIP42CERT2'
p465
g23
tp466
a(S'CIP42ASSOC'
p467
g23
tp468
a(S'CIP42CERT4'
p469
g23
tp470
a(S'CIP42BACHL'
p471
g23
tp472
a(S'CIP43CERT1'
p473
g23
tp474
a(S'CIP43CERT2'
p475
g23
tp476
a(S'CIP43ASSOC'
p477
g23
tp478
a(S'CIP43CERT4'
p479
g23
tp480
a(S'CIP43BACHL'
p481
g23
tp482
a(S'CIP44CERT1'
p483
g23
tp484
a(S'CIP44CERT2'
p485
g23
tp486
a(S'CIP44ASSOC'
p487
g23
tp488
a(S'CIP44CERT4'
p489
g23
tp490
a(S'CIP44BACHL'
p491
g23
tp492
a(S'CIP45CERT1'
p493
g23
tp494
a(S'CIP45CERT2'
p495
g23
tp496
a(S'CIP45ASSOC'
p497
g23
tp498
a(S'CIP45CERT4'
p499
g23
tp500
a(S'CIP45BACHL'
p501
g23
tp502
a(S'CIP46CERT1'
p503
g23
tp504
a(S'CIP46CERT2'
p505
g23
tp506
a(S'CIP46ASSOC'
p507
g23
tp508
a(S'CIP46CERT4'
p509
g23
tp510
a(S'CIP46BACHL'
p511
g23
tp512
a(S'CIP47CERT1'
p513
g23
tp514
a(S'CIP47CERT2'
p515
g23
tp516
a(S'CIP47ASSOC'
p517
g23
tp518
a(S'CIP47CERT4'
p519
g23
tp520
a(S'CIP47BACHL'
p521
g23
tp522
a(S'CIP48CERT1'
p523
g23
tp524
a(S'CIP48CERT2'
p525
g23
tp526
a(S'CIP48ASSOC'
p527
g23
tp528
a(S'CIP48CERT4'
p529
g23
tp530
a(S'CIP48BACHL'
p531
g23
tp532
a(S'CIP49CERT1'
p533
g23
tp534
a(S'CIP49CERT2'
p535
g23
tp536
a(S'CIP49ASSOC'
p537
g23
tp538
a(S'CIP49CERT4'
p539
g23
tp540
a(S'CIP49BACHL'
p541
g23
tp542
a(S'CIP50CERT1'
p543
g23
tp544
a(S'CIP50CERT2'
p545
g23
tp546
a(S'CIP50ASSOC'
p547
g23
tp548
a(S'CIP50CERT4'
p549
g23
tp550
a(S'CIP50BACHL'
p551
g23
tp552
a(S'CIP51CERT1'
p553
g23
tp554
a(S'CIP51CERT2'
p555
g23
tp556
a(S'CIP51ASSOC'
p557
g23
tp558
a(S'CIP51CERT4'
p559
g23
tp560
a(S'CIP51BACHL'
p561
g23
tp562
a(S'CIP52CERT1'
p563
g23
tp564
a(S'CIP52CERT2'
p565
g23
tp566
a(S'CIP52ASSOC'
p567
g23
tp568
a(S'CIP52CERT4'
p569
g23
tp570
a(S'CIP52BACHL'
p571
g23
tp572
a(S'CIP54CERT1'
p573
g23
tp574
a(S'CIP54CERT2'
p575
g23
tp576
a(S'CIP54ASSOC'
p577
g23
tp578
a(S'CIP54CERT4'
p579
g23
tp580
a(S'CIP54BACHL'
p581
g23
tp582
a(S'DISTANCEONLY'
p583
g2
tp584
a(S'UGDS'
p585
g77
tp586
a(S'UG'
p587
g77
tp588
a(S'UGDS_WHITE'
p589
g77
tp590
a(S'UGDS_BLACK'
p591
g77
tp592
a(S'UGDS_HISP'
p593
g77
tp594
a(S'UGDS_ASIAN'
p595
g77
tp596
a(S'UGDS_AIAN'
p597
g77
tp598
a(S'UGDS_NHPI'
p599
g77
tp600
a(S'UGDS_2MOR'
p601
g77
tp602
a(S'UGDS_NRA'
p603
g77
tp604
a(S'UGDS_UNKN'
p605
g77
tp606
a(S'UGDS_WHITENH'
p607
g77
tp608
a(S'UGDS_BLACKNH'
p609
g77
tp610
a(S'UGDS_API'
p611
g77
tp612
a(S'UGDS_AIANOLD'
p613
g77
tp614
a(S'UGDS_HISPOLD'
p615
g77
tp616
a(S'UG_NRA'
p617
g77
tp618
a(S'UG_UNKN'
p619
g77
tp620
a(S'UG_WHITENH'
p621
g77
tp622
a(S'UG_BLACKNH'
p623
g77
tp624
a(S'UG_API'
p625
g77
tp626
a(S'UG_AIANOLD'
p627
g77
tp628
a(S'UG_HISPOLD'
p629
g77
tp630
a(S'PPTUG_EF'
p631
g77
tp632
a(S'PPTUG_EF2'
p633
g77
tp634
a(S'CURROPER'
p635
g2
tp636
a(S'NPT4_PUB'
p637
g23
tp638
a(S'NPT4_PRIV'
p639
g23
tp640
a(S'NPT4_PROG'
p641
g23
tp642
a(S'NPT4_OTHER'
p643
g23
tp644
a(S'NPT41_PUB'
p645
g23
tp646
a(S'NPT42_PUB'
p647
g23
tp648
a(S'NPT43_PUB'
p649
g23
tp650
a(S'NPT44_PUB'
p651
g23
tp652
a(S'NPT45_PUB'
p653
g23
tp654
a(S'NPT41_PRIV'
p655
g23
tp656
a(S'NPT42_PRIV'
p657
g23
tp658
a(S'NPT43_PRIV'
p659
g23
tp660
a(S'NPT44_PRIV'
p661
g23
tp662
a(S'NPT45_PRIV'
p663
g23
tp664
a(S'NPT41_PROG'
p665
g23
tp666
a(S'NPT42_PROG'
p667
g23
tp668
a(S'NPT43_PROG'
p669
g23
tp670
a(S'NPT44_PROG'
p671
g23
tp672
a(S'NPT45_PROG'
p673
g23
tp674
a(S'NPT41_OTHER'
p675
g23
tp676
a(S'NPT42_OTHER'
p677
g23
tp678
a(S'NPT43_OTHER'
p679
g23
tp680
a(S'NPT44_OTHER'
p681
g23
tp682
a(S'NPT45_OTHER'
p683
g23
tp684
a(S'NPT4_048_PUB'
p685
g23
tp686
a(S'NPT4_048_PRIV'
p687
g23
tp688
a(S'NPT4_048_PROG'
p689
g23
tp690
a(S'NPT4_048_OTHER'
p691
g23
tp692
a(S'NPT4_3075_PUB'
p693
g23
tp694
a(S'NPT4_3075_PRIV'
p695
g23
tp696
a(S'NPT4_75UP_PUB'
p697
g23
tp698
a(S'NPT4_75UP_PRIV'
p699
g23
tp700
a(S'NPT4_3075_PROG'
p701
g23
tp702
a(S'NPT4_3075_OTHER'
p703
g23
tp704
a(S'NPT4_75UP_PROG'
p705
g23
tp706
a(S'NPT4_75UP_OTHER'
p707
g23
tp708
a(S'NUM4_PUB'
p709
g23
tp710
a(S'NUM4_PRIV'
p711
g23
tp712
a(S'NUM4_PROG'
p713
g23
tp714
a(S'NUM4_OTHER'
p715
g23
tp716
a(S'NUM41_PUB'
p717
g23
tp718
a(S'NUM42_PUB'
p719
g23
tp720
a(S'NUM43_PUB'
p721
g23
tp722
a(S'NUM44_PUB'
p723
g23
tp724
a(S'NUM45_PUB'
p725
g23
tp726
a(S'NUM41_PRIV'
p727
g23
tp728
a(S'NUM42_PRIV'
p729
g23
tp730
a(S'NUM43_PRIV'
p731
g23
tp732
a(S'NUM44_PRIV'
p733
g23
tp734
a(S'NUM45_PRIV'
p735
g23
tp736
a(S'NUM41_PROG'
p737
g23
tp738
a(S'NUM42_PROG'
p739
g23
tp740
a(S'NUM43_PROG'
p741
g23
tp742
a(S'NUM44_PROG'
p743
g23
tp744
a(S'NUM45_PROG'
p745
g23
tp746
a(S'NUM41_OTHER'
p747
g23
tp748
a(S'NUM42_OTHER'
p749
g23
tp750
a(S'NUM43_OTHER'
p751
g23
tp752
a(S'NUM44_OTHER'
p753
g23
tp754
a(S'NUM45_OTHER'
p755
g23
tp756
a(S'COSTT4_A'
p757
g23
tp758
a(S'COSTT4_P'
p759
g23
tp760
a(S'TUITIONFEE_IN'
p761
g23
tp762
a(S'TUITIONFEE_OUT'
p763
g23
tp764
a(S'TUITIONFEE_PROG'
p765
g23
tp766
a(S'TUITFTE'
p767
g77
tp768
a(S'INEXPFTE'
p769
g77
tp770
a(S'AVGFACSAL'
p771
g77
tp772
a(S'PFTFAC'
p773
g77
tp774
a(S'PCTPELL'
p775
g77
tp776
a(S'C150_4'
p777
g77
tp778
a(S'C150_L4'
p779
g77
tp780
a(S'C150_4_POOLED'
p781
g77
tp782
a(S'C150_L4_POOLED'
p783
g77
tp784
a(S'POOLYRS'
p785
g2
tp786
a(S'PFTFTUG1_EF'
p787
g77
tp788
a(S'D150_4'
p789
g2
tp790
a(S'D150_L4'
p791
g2
tp792
a(S'D150_4_POOLED'
p793
g2
tp794
a(S'D150_L4_POOLED'
p795
g2
tp796
a(S'C150_4_WHITE'
p797
g77
tp798
a(S'C150_4_BLACK'
p799
g77
tp800
a(S'C150_4_HISP'
p801
g77
tp802
a(S'C150_4_ASIAN'
p803
g77
tp804
a(S'C150_4_AIAN'
p805
g77
tp806
a(S'C150_4_NHPI'
p807
g77
tp808
a(S'C150_4_2MOR'
p809
g77
tp810
a(S'C150_4_NRA'
p811
g77
tp812
a(S'C150_4_UNKN'
p813
g77
tp814
a(S'C150_4_WHITENH'
p815
g77
tp816
a(S'C150_4_BLACKNH'
p817
g77
tp818
a(S'C150_4_API'
p819
g77
tp820
a(S'C150_4_AIANOLD'
p821
g77
tp822
a(S'C150_4_HISPOLD'
p823
g77
tp824
a(S'C150_L4_WHITE'
p825
g77
tp826
a(S'C150_L4_BLACK'
p827
g77
tp828
a(S'C150_L4_HISP'
p829
g77
tp830
a(S'C150_L4_ASIAN'
p831
g77
tp832
a(S'C150_L4_AIAN'
p833
g77
tp834
a(S'C150_L4_NHPI'
p835
g77
tp836
a(S'C150_L4_2MOR'
p837
g77
tp838
a(S'C150_L4_NRA'
p839
g77
tp840
a(S'C150_L4_UNKN'
p841
g77
tp842
a(S'C150_L4_WHITENH'
p843
g77
tp844
a(S'C150_L4_BLACKNH'
p845
g77
tp846
a(S'C150_L4_API'
p847
g77
tp848
a(S'C150_L4_AIANOLD'
p849
g77
tp850
a(S'C150_L4_HISPOLD'
p851
g77
tp852
a(S'C200_4'
p853
g77
tp854
a(S'C200_L4'
p855
g77
tp856
a(S'D200_4'
p857
g2
tp858
a(S'D200_L4'
p859
g2
tp860
a(S'RET_FT4'
p861
g77
tp862
a(S'RET_FTL4'
p863
g77
tp864
a(S'RET_PT4'
p865
g77
tp866
a(S'RET_PTL4'
p867
g77
tp868
a(S'C200_4_POOLED'
p869
g77
tp870
a(S'C200_L4_POOLED'
p871
g77
tp872
a(S'POOLYRS200'
p873
g2
tp874
a(S'D200_4_POOLED'
p875
g2
tp876
a(S'D200_L4_POOLED'
p877
g2
tp878
a(S'PCTFLOAN'
p879
g77
tp880
a(S'UG25ABV'
p881
g77
tp882
a(S'CDR2'
p883
g2
tp884
a(S'CDR3'
p885
g2
tp886
a(S'DEATH_YR2_RT'
p887
g77
tp888
a(S'COMP_ORIG_YR2_RT'
p889
g77
tp890
a(S'COMP_4YR_TRANS_YR2_RT'
p891
g77
tp892
a(S'COMP_2YR_TRANS_YR2_RT'
p893
g77
tp894
a(S'WDRAW_ORIG_YR2_RT'
p895
g77
tp896
a(S'WDRAW_4YR_TRANS_YR2_RT'
p897
g77
tp898
a(S'WDRAW_2YR_TRANS_YR2_RT'
p899
g77
tp900
a(S'ENRL_ORIG_YR2_RT'
p901
g77
tp902
a(S'ENRL_4YR_TRANS_YR2_RT'
p903
g77
tp904
a(S'ENRL_2YR_TRANS_YR2_RT'
p905
g77
tp906
a(S'UNKN_ORIG_YR2_RT'
p907
g77
tp908
a(S'UNKN_4YR_TRANS_YR2_RT'
p909
g77
tp910
a(S'UNKN_2YR_TRANS_YR2_RT'
p911
g77
tp912
a(S'LO_INC_DEATH_YR2_RT'
p913
g77
tp914
a(S'LO_INC_COMP_ORIG_YR2_RT'
p915
g77
tp916
a(S'LO_INC_COMP_4YR_TRANS_YR2_RT'
p917
g77
tp918
a(S'LO_INC_COMP_2YR_TRANS_YR2_RT'
p919
g77
tp920
a(S'LO_INC_WDRAW_ORIG_YR2_RT'
p921
g77
tp922
a(S'LO_INC_WDRAW_4YR_TRANS_YR2_RT'
p923
g77
tp924
a(S'LO_INC_WDRAW_2YR_TRANS_YR2_RT'
p925
g77
tp926
a(S'LO_INC_ENRL_ORIG_YR2_RT'
p927
g77
tp928
a(S'LO_INC_ENRL_4YR_TRANS_YR2_RT'
p929
g77
tp930
a(S'LO_INC_ENRL_2YR_TRANS_YR2_RT'
p931
g77
tp932
a(S'LO_INC_UNKN_ORIG_YR2_RT'
p933
g77
tp934
a(S'LO_INC_UNKN_4YR_TRANS_YR2_RT'
p935
g77
tp936
a(S'LO_INC_UNKN_2YR_TRANS_YR2_RT'
p937
g77
tp938
a(S'MD_INC_DEATH_YR2_RT'
p939
g77
tp940
a(S'MD_INC_COMP_ORIG_YR2_RT'
p941
g77
tp942
a(S'MD_INC_COMP_4YR_TRANS_YR2_RT'
p943
g77
tp944
a(S'MD_INC_COMP_2YR_TRANS_YR2_RT'
p945
g77
tp946
a(S'MD_INC_WDRAW_ORIG_YR2_RT'
p947
g77
tp948
a(S'MD_INC_WDRAW_4YR_TRANS_YR2_RT'
p949
g77
tp950
a(S'MD_INC_WDRAW_2YR_TRANS_YR2_RT'
p951
g77
tp952
a(S'MD_INC_ENRL_ORIG_YR2_RT'
p953
g77
tp954
a(S'MD_INC_ENRL_4YR_TRANS_YR2_RT'
p955
g77
tp956
a(S'MD_INC_ENRL_2YR_TRANS_YR2_RT'
p957
g77
tp958
a(S'MD_INC_UNKN_ORIG_YR2_RT'
p959
g77
tp960
a(S'MD_INC_UNKN_4YR_TRANS_YR2_RT'
p961
g77
tp962
a(S'MD_INC_UNKN_2YR_TRANS_YR2_RT'
p963
g77
tp964
a(S'HI_INC_DEATH_YR2_RT'
p965
g77
tp966
a(S'HI_INC_COMP_ORIG_YR2_RT'
p967
g77
tp968
a(S'HI_INC_COMP_4YR_TRANS_YR2_RT'
p969
g77
tp970
a(S'HI_INC_COMP_2YR_TRANS_YR2_RT'
p971
g77
tp972
a(S'HI_INC_WDRAW_ORIG_YR2_RT'
p973
g77
tp974
a(S'HI_INC_WDRAW_4YR_TRANS_YR2_RT'
p975
g77
tp976
a(S'HI_INC_WDRAW_2YR_TRANS_YR2_RT'
p977
g77
tp978
a(S'HI_INC_ENRL_ORIG_YR2_RT'
p979
g77
tp980
a(S'HI_INC_ENRL_4YR_TRANS_YR2_RT'
p981
g77
tp982
a(S'HI_INC_ENRL_2YR_TRANS_YR2_RT'
p983
g77
tp984
a(S'HI_INC_UNKN_ORIG_YR2_RT'
p985
g77
tp986
a(S'HI_INC_UNKN_4YR_TRANS_YR2_RT'
p987
g77
tp988
a(S'HI_INC_UNKN_2YR_TRANS_YR2_RT'
p989
g77
tp990
a(S'DEP_DEATH_YR2_RT'
p991
g77
tp992
a(S'DEP_COMP_ORIG_YR2_RT'
p993
g77
tp994
a(S'DEP_COMP_4YR_TRANS_YR2_RT'
p995
g77
tp996
a(S'DEP_COMP_2YR_TRANS_YR2_RT'
p997
g77
tp998
a(S'DEP_WDRAW_ORIG_YR2_RT'
p999
g77
tp1000
a(S'DEP_WDRAW_4YR_TRANS_YR2_RT'
p1001
g77
tp1002
a(S'DEP_WDRAW_2YR_TRANS_YR2_RT'
p1003
g77
tp1004
a(S'DEP_ENRL_ORIG_YR2_RT'
p1005
g77
tp1006
a(S'DEP_ENRL_4YR_TRANS_YR2_RT'
p1007
g77
tp1008
a(S'DEP_ENRL_2YR_TRANS_YR2_RT'
p1009
g77
tp1010
a(S'DEP_UNKN_ORIG_YR2_RT'
p1011
g77
tp1012
a(S'DEP_UNKN_4YR_TRANS_YR2_RT'
p1013
g77
tp1014
a(S'DEP_UNKN_2YR_TRANS_YR2_RT'
p1015
g77
tp1016
a(S'IND_DEATH_YR2_RT'
p1017
g77
tp1018
a(S'IND_COMP_ORIG_YR2_RT'
p1019
g77
tp1020
a(S'IND_COMP_4YR_TRANS_YR2_RT'
p1021
g77
tp1022
a(S'IND_COMP_2YR_TRANS_YR2_RT'
p1023
g77
tp1024
a(S'IND_WDRAW_ORIG_YR2_RT'
p1025
g77
tp1026
a(S'IND_WDRAW_4YR_TRANS_YR2_RT'
p1027
g77
tp1028
a(S'IND_WDRAW_2YR_TRANS_YR2_RT'
p1029
g77
tp1030
a(S'IND_ENRL_ORIG_YR2_RT'
p1031
g77
tp1032
a(S'IND_ENRL_4YR_TRANS_YR2_RT'
p1033
g77
tp1034
a(S'IND_ENRL_2YR_TRANS_YR2_RT'
p1035
g77
tp1036
a(S'IND_UNKN_ORIG_YR2_RT'
p1037
g77
tp1038
a(S'IND_UNKN_4YR_TRANS_YR2_RT'
p1039
g77
tp1040
a(S'IND_UNKN_2YR_TRANS_YR2_RT'
p1041
g77
tp1042
a(S'FEMALE_DEATH_YR2_RT'
p1043
g77
tp1044
a(S'FEMALE_COMP_ORIG_YR2_RT'
p1045
g77
tp1046
a(S'FEMALE_COMP_4YR_TRANS_YR2_RT'
p1047
g77
tp1048
a(S'FEMALE_COMP_2YR_TRANS_YR2_RT'
p1049
g77
tp1050
a(S'FEMALE_WDRAW_ORIG_YR2_RT'
p1051
g77
tp1052
a(S'FEMALE_WDRAW_4YR_TRANS_YR2_RT'
p1053
g77
tp1054
a(S'FEMALE_WDRAW_2YR_TRANS_YR2_RT'
p1055
g77
tp1056
a(S'FEMALE_ENRL_ORIG_YR2_RT'
p1057
g77
tp1058
a(S'FEMALE_ENRL_4YR_TRANS_YR2_RT'
p1059
g77
tp1060
a(S'FEMALE_ENRL_2YR_TRANS_YR2_RT'
p1061
g77
tp1062
a(S'FEMALE_UNKN_ORIG_YR2_RT'
p1063
g77
tp1064
a(S'FEMALE_UNKN_4YR_TRANS_YR2_RT'
p1065
g77
tp1066
a(S'FEMALE_UNKN_2YR_TRANS_YR2_RT'
p1067
g77
tp1068
a(S'MALE_DEATH_YR2_RT'
p1069
g77
tp1070
a(S'MALE_COMP_ORIG_YR2_RT'
p1071
g77
tp1072
a(S'MALE_COMP_4YR_TRANS_YR2_RT'
p1073
g77
tp1074
a(S'MALE_COMP_2YR_TRANS_YR2_RT'
p1075
g77
tp1076
a(S'MALE_WDRAW_ORIG_YR2_RT'
p1077
g77
tp1078
a(S'MALE_WDRAW_4YR_TRANS_YR2_RT'
p1079
g77
tp1080
a(S'MALE_WDRAW_2YR_TRANS_YR2_RT'
p1081
g77
tp1082
a(S'MALE_ENRL_ORIG_YR2_RT'
p1083
g77
tp1084
a(S'MALE_ENRL_4YR_TRANS_YR2_RT'
p1085
g77
tp1086
a(S'MALE_ENRL_2YR_TRANS_YR2_RT'
p1087
g77
tp1088
a(S'MALE_UNKN_ORIG_YR2_RT'
p1089
g77
tp1090
a(S'MALE_UNKN_4YR_TRANS_YR2_RT'
p1091
g77
tp1092
a(S'MALE_UNKN_2YR_TRANS_YR2_RT'
p1093
g77
tp1094
a(S'PELL_DEATH_YR2_RT'
p1095
g77
tp1096
a(S'PELL_COMP_ORIG_YR2_RT'
p1097
g77
tp1098
a(S'PELL_COMP_4YR_TRANS_YR2_RT'
p1099
g77
tp1100
a(S'PELL_COMP_2YR_TRANS_YR2_RT'
p1101
g77
tp1102
a(S'PELL_WDRAW_ORIG_YR2_RT'
p1103
g77
tp1104
a(S'PELL_WDRAW_4YR_TRANS_YR2_RT'
p1105
g77
tp1106
a(S'PELL_WDRAW_2YR_TRANS_YR2_RT'
p1107
g77
tp1108
a(S'PELL_ENRL_ORIG_YR2_RT'
p1109
g77
tp1110
a(S'PELL_ENRL_4YR_TRANS_YR2_RT'
p1111
g77
tp1112
a(S'PELL_ENRL_2YR_TRANS_YR2_RT'
p1113
g77
tp1114
a(S'PELL_UNKN_ORIG_YR2_RT'
p1115
g77
tp1116
a(S'PELL_UNKN_4YR_TRANS_YR2_RT'
p1117
g77
tp1118
a(S'PELL_UNKN_2YR_TRANS_YR2_RT'
p1119
g77
tp1120
a(S'NOPELL_DEATH_YR2_RT'
p1121
g77
tp1122
a(S'NOPELL_COMP_ORIG_YR2_RT'
p1123
g77
tp1124
a(S'NOPELL_COMP_4YR_TRANS_YR2_RT'
p1125
g77
tp1126
a(S'NOPELL_COMP_2YR_TRANS_YR2_RT'
p1127
g77
tp1128
a(S'NOPELL_WDRAW_ORIG_YR2_RT'
p1129
g77
tp1130
a(S'NOPELL_WDRAW_4YR_TRANS_YR2_RT'
p1131
g77
tp1132
a(S'NOPELL_WDRAW_2YR_TRANS_YR2_RT'
p1133
g77
tp1134
a(S'NOPELL_ENRL_ORIG_YR2_RT'
p1135
g77
tp1136
a(S'NOPELL_ENRL_4YR_TRANS_YR2_RT'
p1137
g77
tp1138
a(S'NOPELL_ENRL_2YR_TRANS_YR2_RT'
p1139
g77
tp1140
a(S'NOPELL_UNKN_ORIG_YR2_RT'
p1141
g77
tp1142
a(S'NOPELL_UNKN_4YR_TRANS_YR2_RT'
p1143
g77
tp1144
a(S'NOPELL_UNKN_2YR_TRANS_YR2_RT'
p1145
g77
tp1146
a(S'LOAN_DEATH_YR2_RT'
p1147
g77
tp1148
a(S'LOAN_COMP_ORIG_YR2_RT'
p1149
g77
tp1150
a(S'LOAN_COMP_4YR_TRANS_YR2_RT'
p1151
g77
tp1152
a(S'LOAN_COMP_2YR_TRANS_YR2_RT'
p1153
g77
tp1154
a(S'LOAN_WDRAW_ORIG_YR2_RT'
p1155
g77
tp1156
a(S'LOAN_WDRAW_4YR_TRANS_YR2_RT'
p1157
g77
tp1158
a(S'LOAN_WDRAW_2YR_TRANS_YR2_RT'
p1159
g77
tp1160
a(S'LOAN_ENRL_ORIG_YR2_RT'
p1161
g77
tp1162
a(S'LOAN_ENRL_4YR_TRANS_YR2_RT'
p1163
g77
tp1164
a(S'LOAN_ENRL_2YR_TRANS_YR2_RT'
p1165
g77
tp1166
a(S'LOAN_UNKN_ORIG_YR2_RT'
p1167
g77
tp1168
a(S'LOAN_UNKN_4YR_TRANS_YR2_RT'
p1169
g77
tp1170
a(S'LOAN_UNKN_2YR_TRANS_YR2_RT'
p1171
g77
tp1172
a(S'NOLOAN_DEATH_YR2_RT'
p1173
g77
tp1174
a(S'NOLOAN_COMP_ORIG_YR2_RT'
p1175
g77
tp1176
a(S'NOLOAN_COMP_4YR_TRANS_YR2_RT'
p1177
g77
tp1178
a(S'NOLOAN_COMP_2YR_TRANS_YR2_RT'
p1179
g77
tp1180
a(S'NOLOAN_WDRAW_ORIG_YR2_RT'
p1181
g77
tp1182
a(S'NOLOAN_WDRAW_4YR_TRANS_YR2_RT'
p1183
g77
tp1184
a(S'NOLOAN_WDRAW_2YR_TRANS_YR2_RT'
p1185
g77
tp1186
a(S'NOLOAN_ENRL_ORIG_YR2_RT'
p1187
g77
tp1188
a(S'NOLOAN_ENRL_4YR_TRANS_YR2_RT'
p1189
g77
tp1190
a(S'NOLOAN_ENRL_2YR_TRANS_YR2_RT'
p1191
g77
tp1192
a(S'NOLOAN_UNKN_ORIG_YR2_RT'
p1193
g77
tp1194
a(S'NOLOAN_UNKN_4YR_TRANS_YR2_RT'
p1195
g77
tp1196
a(S'NOLOAN_UNKN_2YR_TRANS_YR2_RT'
p1197
g77
tp1198
a(S'FIRSTGEN_DEATH_YR2_RT'
p1199
g77
tp1200
a(S'FIRSTGEN_COMP_ORIG_YR2_RT'
p1201
g77
tp1202
a(S'FIRSTGEN_COMP_4YR_TRANS_YR2_RT'
p1203
g77
tp1204
a(S'FIRSTGEN_COMP_2YR_TRANS_YR2_RT'
p1205
g77
tp1206
a(S'FIRSTGEN_WDRAW_ORIG_YR2_RT'
p1207
g77
tp1208
a(S'FIRSTGEN_WDRAW_4YR_TRANS_YR2_RT'
p1209
g77
tp1210
a(S'FIRSTGEN_WDRAW_2YR_TRANS_YR2_RT'
p1211
g77
tp1212
a(S'FIRSTGEN_ENRL_ORIG_YR2_RT'
p1213
g77
tp1214
a(S'FIRSTGEN_ENRL_4YR_TRANS_YR2_RT'
p1215
g77
tp1216
a(S'FIRSTGEN_ENRL_2YR_TRANS_YR2_RT'
p1217
g77
tp1218
a(S'FIRSTGEN_UNKN_ORIG_YR2_RT'
p1219
g77
tp1220
a(S'FIRSTGEN_UNKN_4YR_TRANS_YR2_RT'
p1221
g77
tp1222
a(S'FIRSTGEN_UNKN_2YR_TRANS_YR2_RT'
p1223
g77
tp1224
a(S'NOT1STGEN_DEATH_YR2_RT'
p1225
g77
tp1226
a(S'NOT1STGEN_COMP_ORIG_YR2_RT'
p1227
g77
tp1228
a(S'NOT1STGEN_COMP_4YR_TRANS_YR2_RT'
p1229
g77
tp1230
a(S'NOT1STGEN_COMP_2YR_TRANS_YR2_RT'
p1231
g77
tp1232
a(S'NOT1STGEN_WDRAW_ORIG_YR2_RT'
p1233
g77
tp1234
a(S'NOT1STGEN_WDRAW_4YR_TRANS_YR2_RT'
p1235
g77
tp1236
a(S'NOT1STGEN_WDRAW_2YR_TRANS_YR2_RT'
p1237
g77
tp1238
a(S'NOT1STGEN_ENRL_ORIG_YR2_RT'
p1239
g77
tp1240
a(S'NOT1STGEN_ENRL_4YR_TRANS_YR2_RT'
p1241
g77
tp1242
a(S'NOT1STGEN_ENRL_2YR_TRANS_YR2_RT'
p1243
g77
tp1244
a(S'NOT1STGEN_UNKN_ORIG_YR2_RT'
p1245
g77
tp1246
a(S'NOT1STGEN_UNKN_4YR_TRANS_YR2_RT'
p1247
g77
tp1248
a(S'NOT1STGEN_UNKN_2YR_TRANS_YR2_RT'
p1249
g77
tp1250
a(S'DEATH_YR3_RT'
p1251
g77
tp1252
a(S'COMP_ORIG_YR3_RT'
p1253
g77
tp1254
a(S'COMP_4YR_TRANS_YR3_RT'
p1255
g77
tp1256
a(S'COMP_2YR_TRANS_YR3_RT'
p1257
g77
tp1258
a(S'WDRAW_ORIG_YR3_RT'
p1259
g77
tp1260
a(S'WDRAW_4YR_TRANS_YR3_RT'
p1261
g77
tp1262
a(S'WDRAW_2YR_TRANS_YR3_RT'
p1263
g77
tp1264
a(S'ENRL_ORIG_YR3_RT'
p1265
g77
tp1266
a(S'ENRL_4YR_TRANS_YR3_RT'
p1267
g77
tp1268
a(S'ENRL_2YR_TRANS_YR3_RT'
p1269
g77
tp1270
a(S'UNKN_ORIG_YR3_RT'
p1271
g77
tp1272
a(S'UNKN_4YR_TRANS_YR3_RT'
p1273
g77
tp1274
a(S'UNKN_2YR_TRANS_YR3_RT'
p1275
g77
tp1276
a(S'LO_INC_DEATH_YR3_RT'
p1277
g77
tp1278
a(S'LO_INC_COMP_ORIG_YR3_RT'
p1279
g77
tp1280
a(S'LO_INC_COMP_4YR_TRANS_YR3_RT'
p1281
g77
tp1282
a(S'LO_INC_COMP_2YR_TRANS_YR3_RT'
p1283
g77
tp1284
a(S'LO_INC_WDRAW_ORIG_YR3_RT'
p1285
g77
tp1286
a(S'LO_INC_WDRAW_4YR_TRANS_YR3_RT'
p1287
g77
tp1288
a(S'LO_INC_WDRAW_2YR_TRANS_YR3_RT'
p1289
g77
tp1290
a(S'LO_INC_ENRL_ORIG_YR3_RT'
p1291
g77
tp1292
a(S'LO_INC_ENRL_4YR_TRANS_YR3_RT'
p1293
g77
tp1294
a(S'LO_INC_ENRL_2YR_TRANS_YR3_RT'
p1295
g77
tp1296
a(S'LO_INC_UNKN_ORIG_YR3_RT'
p1297
g77
tp1298
a(S'LO_INC_UNKN_4YR_TRANS_YR3_RT'
p1299
g77
tp1300
a(S'LO_INC_UNKN_2YR_TRANS_YR3_RT'
p1301
g77
tp1302
a(S'MD_INC_DEATH_YR3_RT'
p1303
g77
tp1304
a(S'MD_INC_COMP_ORIG_YR3_RT'
p1305
g77
tp1306
a(S'MD_INC_COMP_4YR_TRANS_YR3_RT'
p1307
g77
tp1308
a(S'MD_INC_COMP_2YR_TRANS_YR3_RT'
p1309
g77
tp1310
a(S'MD_INC_WDRAW_ORIG_YR3_RT'
p1311
g77
tp1312
a(S'MD_INC_WDRAW_4YR_TRANS_YR3_RT'
p1313
g77
tp1314
a(S'MD_INC_WDRAW_2YR_TRANS_YR3_RT'
p1315
g77
tp1316
a(S'MD_INC_ENRL_ORIG_YR3_RT'
p1317
g77
tp1318
a(S'MD_INC_ENRL_4YR_TRANS_YR3_RT'
p1319
g77
tp1320
a(S'MD_INC_ENRL_2YR_TRANS_YR3_RT'
p1321
g77
tp1322
a(S'MD_INC_UNKN_ORIG_YR3_RT'
p1323
g77
tp1324
a(S'MD_INC_UNKN_4YR_TRANS_YR3_RT'
p1325
g77
tp1326
a(S'MD_INC_UNKN_2YR_TRANS_YR3_RT'
p1327
g77
tp1328
a(S'HI_INC_DEATH_YR3_RT'
p1329
g77
tp1330
a(S'HI_INC_COMP_ORIG_YR3_RT'
p1331
g77
tp1332
a(S'HI_INC_COMP_4YR_TRANS_YR3_RT'
p1333
g77
tp1334
a(S'HI_INC_COMP_2YR_TRANS_YR3_RT'
p1335
g77
tp1336
a(S'HI_INC_WDRAW_ORIG_YR3_RT'
p1337
g77
tp1338
a(S'HI_INC_WDRAW_4YR_TRANS_YR3_RT'
p1339
g77
tp1340
a(S'HI_INC_WDRAW_2YR_TRANS_YR3_RT'
p1341
g77
tp1342
a(S'HI_INC_ENRL_ORIG_YR3_RT'
p1343
g77
tp1344
a(S'HI_INC_ENRL_4YR_TRANS_YR3_RT'
p1345
g77
tp1346
a(S'HI_INC_ENRL_2YR_TRANS_YR3_RT'
p1347
g77
tp1348
a(S'HI_INC_UNKN_ORIG_YR3_RT'
p1349
g77
tp1350
a(S'HI_INC_UNKN_4YR_TRANS_YR3_RT'
p1351
g77
tp1352
a(S'HI_INC_UNKN_2YR_TRANS_YR3_RT'
p1353
g77
tp1354
a(S'DEP_DEATH_YR3_RT'
p1355
g77
tp1356
a(S'DEP_COMP_ORIG_YR3_RT'
p1357
g77
tp1358
a(S'DEP_COMP_4YR_TRANS_YR3_RT'
p1359
g77
tp1360
a(S'DEP_COMP_2YR_TRANS_YR3_RT'
p1361
g77
tp1362
a(S'DEP_WDRAW_ORIG_YR3_RT'
p1363
g77
tp1364
a(S'DEP_WDRAW_4YR_TRANS_YR3_RT'
p1365
g77
tp1366
a(S'DEP_WDRAW_2YR_TRANS_YR3_RT'
p1367
g77
tp1368
a(S'DEP_ENRL_ORIG_YR3_RT'
p1369
g77
tp1370
a(S'DEP_ENRL_4YR_TRANS_YR3_RT'
p1371
g77
tp1372
a(S'DEP_ENRL_2YR_TRANS_YR3_RT'
p1373
g77
tp1374
a(S'DEP_UNKN_ORIG_YR3_RT'
p1375
g77
tp1376
a(S'DEP_UNKN_4YR_TRANS_YR3_RT'
p1377
g77
tp1378
a(S'DEP_UNKN_2YR_TRANS_YR3_RT'
p1379
g77
tp1380
a(S'IND_DEATH_YR3_RT'
p1381
g77
tp1382
a(S'IND_COMP_ORIG_YR3_RT'
p1383
g77
tp1384
a(S'IND_COMP_4YR_TRANS_YR3_RT'
p1385
g77
tp1386
a(S'IND_COMP_2YR_TRANS_YR3_RT'
p1387
g77
tp1388
a(S'IND_WDRAW_ORIG_YR3_RT'
p1389
g77
tp1390
a(S'IND_WDRAW_4YR_TRANS_YR3_RT'
p1391
g77
tp1392
a(S'IND_WDRAW_2YR_TRANS_YR3_RT'
p1393
g77
tp1394
a(S'IND_ENRL_ORIG_YR3_RT'
p1395
g77
tp1396
a(S'IND_ENRL_4YR_TRANS_YR3_RT'
p1397
g77
tp1398
a(S'IND_ENRL_2YR_TRANS_YR3_RT'
p1399
g77
tp1400
a(S'IND_UNKN_ORIG_YR3_RT'
p1401
g77
tp1402
a(S'IND_UNKN_4YR_TRANS_YR3_RT'
p1403
g77
tp1404
a(S'IND_UNKN_2YR_TRANS_YR3_RT'
p1405
g77
tp1406
a(S'FEMALE_DEATH_YR3_RT'
p1407
g77
tp1408
a(S'FEMALE_COMP_ORIG_YR3_RT'
p1409
g77
tp1410
a(S'FEMALE_COMP_4YR_TRANS_YR3_RT'
p1411
g77
tp1412
a(S'FEMALE_COMP_2YR_TRANS_YR3_RT'
p1413
g77
tp1414
a(S'FEMALE_WDRAW_ORIG_YR3_RT'
p1415
g77
tp1416
a(S'FEMALE_WDRAW_4YR_TRANS_YR3_RT'
p1417
g77
tp1418
a(S'FEMALE_WDRAW_2YR_TRANS_YR3_RT'
p1419
g77
tp1420
a(S'FEMALE_ENRL_ORIG_YR3_RT'
p1421
g77
tp1422
a(S'FEMALE_ENRL_4YR_TRANS_YR3_RT'
p1423
g77
tp1424
a(S'FEMALE_ENRL_2YR_TRANS_YR3_RT'
p1425
g77
tp1426
a(S'FEMALE_UNKN_ORIG_YR3_RT'
p1427
g77
tp1428
a(S'FEMALE_UNKN_4YR_TRANS_YR3_RT'
p1429
g77
tp1430
a(S'FEMALE_UNKN_2YR_TRANS_YR3_RT'
p1431
g77
tp1432
a(S'MALE_DEATH_YR3_RT'
p1433
g77
tp1434
a(S'MALE_COMP_ORIG_YR3_RT'
p1435
g77
tp1436
a(S'MALE_COMP_4YR_TRANS_YR3_RT'
p1437
g77
tp1438
a(S'MALE_COMP_2YR_TRANS_YR3_RT'
p1439
g77
tp1440
a(S'MALE_WDRAW_ORIG_YR3_RT'
p1441
g77
tp1442
a(S'MALE_WDRAW_4YR_TRANS_YR3_RT'
p1443
g77
tp1444
a(S'MALE_WDRAW_2YR_TRANS_YR3_RT'
p1445
g77
tp1446
a(S'MALE_ENRL_ORIG_YR3_RT'
p1447
g77
tp1448
a(S'MALE_ENRL_4YR_TRANS_YR3_RT'
p1449
g77
tp1450
a(S'MALE_ENRL_2YR_TRANS_YR3_RT'
p1451
g77
tp1452
a(S'MALE_UNKN_ORIG_YR3_RT'
p1453
g77
tp1454
a(S'MALE_UNKN_4YR_TRANS_YR3_RT'
p1455
g77
tp1456
a(S'MALE_UNKN_2YR_TRANS_YR3_RT'
p1457
g77
tp1458
a(S'PELL_DEATH_YR3_RT'
p1459
g77
tp1460
a(S'PELL_COMP_ORIG_YR3_RT'
p1461
g77
tp1462
a(S'PELL_COMP_4YR_TRANS_YR3_RT'
p1463
g77
tp1464
a(S'PELL_COMP_2YR_TRANS_YR3_RT'
p1465
g77
tp1466
a(S'PELL_WDRAW_ORIG_YR3_RT'
p1467
g77
tp1468
a(S'PELL_WDRAW_4YR_TRANS_YR3_RT'
p1469
g77
tp1470
a(S'PELL_WDRAW_2YR_TRANS_YR3_RT'
p1471
g77
tp1472
a(S'PELL_ENRL_ORIG_YR3_RT'
p1473
g77
tp1474
a(S'PELL_ENRL_4YR_TRANS_YR3_RT'
p1475
g77
tp1476
a(S'PELL_ENRL_2YR_TRANS_YR3_RT'
p1477
g77
tp1478
a(S'PELL_UNKN_ORIG_YR3_RT'
p1479
g77
tp1480
a(S'PELL_UNKN_4YR_TRANS_YR3_RT'
p1481
g77
tp1482
a(S'PELL_UNKN_2YR_TRANS_YR3_RT'
p1483
g77
tp1484
a(S'NOPELL_DEATH_YR3_RT'
p1485
g77
tp1486
a(S'NOPELL_COMP_ORIG_YR3_RT'
p1487
g77
tp1488
a(S'NOPELL_COMP_4YR_TRANS_YR3_RT'
p1489
g77
tp1490
a(S'NOPELL_COMP_2YR_TRANS_YR3_RT'
p1491
g77
tp1492
a(S'NOPELL_WDRAW_ORIG_YR3_RT'
p1493
g77
tp1494
a(S'NOPELL_WDRAW_4YR_TRANS_YR3_RT'
p1495
g77
tp1496
a(S'NOPELL_WDRAW_2YR_TRANS_YR3_RT'
p1497
g77
tp1498
a(S'NOPELL_ENRL_ORIG_YR3_RT'
p1499
g77
tp1500
a(S'NOPELL_ENRL_4YR_TRANS_YR3_RT'
p1501
g77
tp1502
a(S'NOPELL_ENRL_2YR_TRANS_YR3_RT'
p1503
g77
tp1504
a(S'NOPELL_UNKN_ORIG_YR3_RT'
p1505
g77
tp1506
a(S'NOPELL_UNKN_4YR_TRANS_YR3_RT'
p1507
g77
tp1508
a(S'NOPELL_UNKN_2YR_TRANS_YR3_RT'
p1509
g77
tp1510
a(S'LOAN_DEATH_YR3_RT'
p1511
g77
tp1512
a(S'LOAN_COMP_ORIG_YR3_RT'
p1513
g77
tp1514
a(S'LOAN_COMP_4YR_TRANS_YR3_RT'
p1515
g77
tp1516
a(S'LOAN_COMP_2YR_TRANS_YR3_RT'
p1517
g77
tp1518
a(S'LOAN_WDRAW_ORIG_YR3_RT'
p1519
g77
tp1520
a(S'LOAN_WDRAW_4YR_TRANS_YR3_RT'
p1521
g77
tp1522
a(S'LOAN_WDRAW_2YR_TRANS_YR3_RT'
p1523
g77
tp1524
a(S'LOAN_ENRL_ORIG_YR3_RT'
p1525
g77
tp1526
a(S'LOAN_ENRL_4YR_TRANS_YR3_RT'
p1527
g77
tp1528
a(S'LOAN_ENRL_2YR_TRANS_YR3_RT'
p1529
g77
tp1530
a(S'LOAN_UNKN_ORIG_YR3_RT'
p1531
g77
tp1532
a(S'LOAN_UNKN_4YR_TRANS_YR3_RT'
p1533
g77
tp1534
a(S'LOAN_UNKN_2YR_TRANS_YR3_RT'
p1535
g77
tp1536
a(S'NOLOAN_DEATH_YR3_RT'
p1537
g77
tp1538
a(S'NOLOAN_COMP_ORIG_YR3_RT'
p1539
g77
tp1540
a(S'NOLOAN_COMP_4YR_TRANS_YR3_RT'
p1541
g77
tp1542
a(S'NOLOAN_COMP_2YR_TRANS_YR3_RT'
p1543
g77
tp1544
a(S'NOLOAN_WDRAW_ORIG_YR3_RT'
p1545
g77
tp1546
a(S'NOLOAN_WDRAW_4YR_TRANS_YR3_RT'
p1547
g77
tp1548
a(S'NOLOAN_WDRAW_2YR_TRANS_YR3_RT'
p1549
g77
tp1550
a(S'NOLOAN_ENRL_ORIG_YR3_RT'
p1551
g77
tp1552
a(S'NOLOAN_ENRL_4YR_TRANS_YR3_RT'
p1553
g77
tp1554
a(S'NOLOAN_ENRL_2YR_TRANS_YR3_RT'
p1555
g77
tp1556
a(S'NOLOAN_UNKN_ORIG_YR3_RT'
p1557
g77
tp1558
a(S'NOLOAN_UNKN_4YR_TRANS_YR3_RT'
p1559
g77
tp1560
a(S'NOLOAN_UNKN_2YR_TRANS_YR3_RT'
p1561
g77
tp1562
a(S'FIRSTGEN_DEATH_YR3_RT'
p1563
g77
tp1564
a(S'FIRSTGEN_COMP_ORIG_YR3_RT'
p1565
g77
tp1566
a(S'FIRSTGEN_COMP_4YR_TRANS_YR3_RT'
p1567
g77
tp1568
a(S'FIRSTGEN_COMP_2YR_TRANS_YR3_RT'
p1569
g77
tp1570
a(S'FIRSTGEN_WDRAW_ORIG_YR3_RT'
p1571
g77
tp1572
a(S'FIRSTGEN_WDRAW_4YR_TRANS_YR3_RT'
p1573
g77
tp1574
a(S'FIRSTGEN_WDRAW_2YR_TRANS_YR3_RT'
p1575
g77
tp1576
a(S'FIRSTGEN_ENRL_ORIG_YR3_RT'
p1577
g77
tp1578
a(S'FIRSTGEN_ENRL_4YR_TRANS_YR3_RT'
p1579
g77
tp1580
a(S'FIRSTGEN_ENRL_2YR_TRANS_YR3_RT'
p1581
g77
tp1582
a(S'FIRSTGEN_UNKN_ORIG_YR3_RT'
p1583
g77
tp1584
a(S'FIRSTGEN_UNKN_4YR_TRANS_YR3_RT'
p1585
g77
tp1586
a(S'FIRSTGEN_UNKN_2YR_TRANS_YR3_RT'
p1587
g77
tp1588
a(S'NOT1STGEN_DEATH_YR3_RT'
p1589
g77
tp1590
a(S'NOT1STGEN_COMP_ORIG_YR3_RT'
p1591
g77
tp1592
a(S'NOT1STGEN_COMP_4YR_TRANS_YR3_RT'
p1593
g77
tp1594
a(S'NOT1STGEN_COMP_2YR_TRANS_YR3_RT'
p1595
g77
tp1596
a(S'NOT1STGEN_WDRAW_ORIG_YR3_RT'
p1597
g77
tp1598
a(S'NOT1STGEN_WDRAW_4YR_TRANS_YR3_RT'
p1599
g77
tp1600
a(S'NOT1STGEN_WDRAW_2YR_TRANS_YR3_RT'
p1601
g77
tp1602
a(S'NOT1STGEN_ENRL_ORIG_YR3_RT'
p1603
g77
tp1604
a(S'NOT1STGEN_ENRL_4YR_TRANS_YR3_RT'
p1605
g77
tp1606
a(S'NOT1STGEN_ENRL_2YR_TRANS_YR3_RT'
p1607
g77
tp1608
a(S'NOT1STGEN_UNKN_ORIG_YR3_RT'
p1609
g77
tp1610
a(S'NOT1STGEN_UNKN_4YR_TRANS_YR3_RT'
p1611
g77
tp1612
a(S'NOT1STGEN_UNKN_2YR_TRANS_YR3_RT'
p1613
g77
tp1614
a(S'DEATH_YR4_RT'
p1615
g77
tp1616
a(S'COMP_ORIG_YR4_RT'
p1617
g77
tp1618
a(S'COMP_4YR_TRANS_YR4_RT'
p1619
g77
tp1620
a(S'COMP_2YR_TRANS_YR4_RT'
p1621
g77
tp1622
a(S'WDRAW_ORIG_YR4_RT'
p1623
g77
tp1624
a(S'WDRAW_4YR_TRANS_YR4_RT'
p1625
g77
tp1626
a(S'WDRAW_2YR_TRANS_YR4_RT'
p1627
g77
tp1628
a(S'ENRL_ORIG_YR4_RT'
p1629
g77
tp1630
a(S'ENRL_4YR_TRANS_YR4_RT'
p1631
g77
tp1632
a(S'ENRL_2YR_TRANS_YR4_RT'
p1633
g77
tp1634
a(S'UNKN_ORIG_YR4_RT'
p1635
g77
tp1636
a(S'UNKN_4YR_TRANS_YR4_RT'
p1637
g77
tp1638
a(S'UNKN_2YR_TRANS_YR4_RT'
p1639
g77
tp1640
a(S'LO_INC_DEATH_YR4_RT'
p1641
g77
tp1642
a(S'LO_INC_COMP_ORIG_YR4_RT'
p1643
g77
tp1644
a(S'LO_INC_COMP_4YR_TRANS_YR4_RT'
p1645
g77
tp1646
a(S'LO_INC_COMP_2YR_TRANS_YR4_RT'
p1647
g77
tp1648
a(S'LO_INC_WDRAW_ORIG_YR4_RT'
p1649
g77
tp1650
a(S'LO_INC_WDRAW_4YR_TRANS_YR4_RT'
p1651
g77
tp1652
a(S'LO_INC_WDRAW_2YR_TRANS_YR4_RT'
p1653
g77
tp1654
a(S'LO_INC_ENRL_ORIG_YR4_RT'
p1655
g77
tp1656
a(S'LO_INC_ENRL_4YR_TRANS_YR4_RT'
p1657
g77
tp1658
a(S'LO_INC_ENRL_2YR_TRANS_YR4_RT'
p1659
g77
tp1660
a(S'LO_INC_UNKN_ORIG_YR4_RT'
p1661
g77
tp1662
a(S'LO_INC_UNKN_4YR_TRANS_YR4_RT'
p1663
g77
tp1664
a(S'LO_INC_UNKN_2YR_TRANS_YR4_RT'
p1665
g77
tp1666
a(S'MD_INC_DEATH_YR4_RT'
p1667
g77
tp1668
a(S'MD_INC_COMP_ORIG_YR4_RT'
p1669
g77
tp1670
a(S'MD_INC_COMP_4YR_TRANS_YR4_RT'
p1671
g77
tp1672
a(S'MD_INC_COMP_2YR_TRANS_YR4_RT'
p1673
g77
tp1674
a(S'MD_INC_WDRAW_ORIG_YR4_RT'
p1675
g77
tp1676
a(S'MD_INC_WDRAW_4YR_TRANS_YR4_RT'
p1677
g77
tp1678
a(S'MD_INC_WDRAW_2YR_TRANS_YR4_RT'
p1679
g77
tp1680
a(S'MD_INC_ENRL_ORIG_YR4_RT'
p1681
g77
tp1682
a(S'MD_INC_ENRL_4YR_TRANS_YR4_RT'
p1683
g77
tp1684
a(S'MD_INC_ENRL_2YR_TRANS_YR4_RT'
p1685
g77
tp1686
a(S'MD_INC_UNKN_ORIG_YR4_RT'
p1687
g77
tp1688
a(S'MD_INC_UNKN_4YR_TRANS_YR4_RT'
p1689
g77
tp1690
a(S'MD_INC_UNKN_2YR_TRANS_YR4_RT'
p1691
g77
tp1692
a(S'HI_INC_DEATH_YR4_RT'
p1693
g77
tp1694
a(S'HI_INC_COMP_ORIG_YR4_RT'
p1695
g77
tp1696
a(S'HI_INC_COMP_4YR_TRANS_YR4_RT'
p1697
g77
tp1698
a(S'HI_INC_COMP_2YR_TRANS_YR4_RT'
p1699
g77
tp1700
a(S'HI_INC_WDRAW_ORIG_YR4_RT'
p1701
g77
tp1702
a(S'HI_INC_WDRAW_4YR_TRANS_YR4_RT'
p1703
g77
tp1704
a(S'HI_INC_WDRAW_2YR_TRANS_YR4_RT'
p1705
g77
tp1706
a(S'HI_INC_ENRL_ORIG_YR4_RT'
p1707
g77
tp1708
a(S'HI_INC_ENRL_4YR_TRANS_YR4_RT'
p1709
g77
tp1710
a(S'HI_INC_ENRL_2YR_TRANS_YR4_RT'
p1711
g77
tp1712
a(S'HI_INC_UNKN_ORIG_YR4_RT'
p1713
g77
tp1714
a(S'HI_INC_UNKN_4YR_TRANS_YR4_RT'
p1715
g77
tp1716
a(S'HI_INC_UNKN_2YR_TRANS_YR4_RT'
p1717
g77
tp1718
a(S'DEP_DEATH_YR4_RT'
p1719
g77
tp1720
a(S'DEP_COMP_ORIG_YR4_RT'
p1721
g77
tp1722
a(S'DEP_COMP_4YR_TRANS_YR4_RT'
p1723
g77
tp1724
a(S'DEP_COMP_2YR_TRANS_YR4_RT'
p1725
g77
tp1726
a(S'DEP_WDRAW_ORIG_YR4_RT'
p1727
g77
tp1728
a(S'DEP_WDRAW_4YR_TRANS_YR4_RT'
p1729
g77
tp1730
a(S'DEP_WDRAW_2YR_TRANS_YR4_RT'
p1731
g77
tp1732
a(S'DEP_ENRL_ORIG_YR4_RT'
p1733
g77
tp1734
a(S'DEP_ENRL_4YR_TRANS_YR4_RT'
p1735
g77
tp1736
a(S'DEP_ENRL_2YR_TRANS_YR4_RT'
p1737
g77
tp1738
a(S'DEP_UNKN_ORIG_YR4_RT'
p1739
g77
tp1740
a(S'DEP_UNKN_4YR_TRANS_YR4_RT'
p1741
g77
tp1742
a(S'DEP_UNKN_2YR_TRANS_YR4_RT'
p1743
g77
tp1744
a(S'IND_DEATH_YR4_RT'
p1745
g77
tp1746
a(S'IND_COMP_ORIG_YR4_RT'
p1747
g77
tp1748
a(S'IND_COMP_4YR_TRANS_YR4_RT'
p1749
g77
tp1750
a(S'IND_COMP_2YR_TRANS_YR4_RT'
p1751
g77
tp1752
a(S'IND_WDRAW_ORIG_YR4_RT'
p1753
g77
tp1754
a(S'IND_WDRAW_4YR_TRANS_YR4_RT'
p1755
g77
tp1756
a(S'IND_WDRAW_2YR_TRANS_YR4_RT'
p1757
g77
tp1758
a(S'IND_ENRL_ORIG_YR4_RT'
p1759
g77
tp1760
a(S'IND_ENRL_4YR_TRANS_YR4_RT'
p1761
g77
tp1762
a(S'IND_ENRL_2YR_TRANS_YR4_RT'
p1763
g77
tp1764
a(S'IND_UNKN_ORIG_YR4_RT'
p1765
g77
tp1766
a(S'IND_UNKN_4YR_TRANS_YR4_RT'
p1767
g77
tp1768
a(S'IND_UNKN_2YR_TRANS_YR4_RT'
p1769
g77
tp1770
a(S'FEMALE_DEATH_YR4_RT'
p1771
g77
tp1772
a(S'FEMALE_COMP_ORIG_YR4_RT'
p1773
g77
tp1774
a(S'FEMALE_COMP_4YR_TRANS_YR4_RT'
p1775
g77
tp1776
a(S'FEMALE_COMP_2YR_TRANS_YR4_RT'
p1777
g77
tp1778
a(S'FEMALE_WDRAW_ORIG_YR4_RT'
p1779
g77
tp1780
a(S'FEMALE_WDRAW_4YR_TRANS_YR4_RT'
p1781
g77
tp1782
a(S'FEMALE_WDRAW_2YR_TRANS_YR4_RT'
p1783
g77
tp1784
a(S'FEMALE_ENRL_ORIG_YR4_RT'
p1785
g77
tp1786
a(S'FEMALE_ENRL_4YR_TRANS_YR4_RT'
p1787
g77
tp1788
a(S'FEMALE_ENRL_2YR_TRANS_YR4_RT'
p1789
g77
tp1790
a(S'FEMALE_UNKN_ORIG_YR4_RT'
p1791
g77
tp1792
a(S'FEMALE_UNKN_4YR_TRANS_YR4_RT'
p1793
g77
tp1794
a(S'FEMALE_UNKN_2YR_TRANS_YR4_RT'
p1795
g77
tp1796
a(S'MALE_DEATH_YR4_RT'
p1797
g77
tp1798
a(S'MALE_COMP_ORIG_YR4_RT'
p1799
g77
tp1800
a(S'MALE_COMP_4YR_TRANS_YR4_RT'
p1801
g77
tp1802
a(S'MALE_COMP_2YR_TRANS_YR4_RT'
p1803
g77
tp1804
a(S'MALE_WDRAW_ORIG_YR4_RT'
p1805
g77
tp1806
a(S'MALE_WDRAW_4YR_TRANS_YR4_RT'
p1807
g77
tp1808
a(S'MALE_WDRAW_2YR_TRANS_YR4_RT'
p1809
g77
tp1810
a(S'MALE_ENRL_ORIG_YR4_RT'
p1811
g77
tp1812
a(S'MALE_ENRL_4YR_TRANS_YR4_RT'
p1813
g77
tp1814
a(S'MALE_ENRL_2YR_TRANS_YR4_RT'
p1815
g77
tp1816
a(S'MALE_UNKN_ORIG_YR4_RT'
p1817
g77
tp1818
a(S'MALE_UNKN_4YR_TRANS_YR4_RT'
p1819
g77
tp1820
a(S'MALE_UNKN_2YR_TRANS_YR4_RT'
p1821
g77
tp1822
a(S'PELL_DEATH_YR4_RT'
p1823
g77
tp1824
a(S'PELL_COMP_ORIG_YR4_RT'
p1825
g77
tp1826
a(S'PELL_COMP_4YR_TRANS_YR4_RT'
p1827
g77
tp1828
a(S'PELL_COMP_2YR_TRANS_YR4_RT'
p1829
g77
tp1830
a(S'PELL_WDRAW_ORIG_YR4_RT'
p1831
g77
tp1832
a(S'PELL_WDRAW_4YR_TRANS_YR4_RT'
p1833
g77
tp1834
a(S'PELL_WDRAW_2YR_TRANS_YR4_RT'
p1835
g77
tp1836
a(S'PELL_ENRL_ORIG_YR4_RT'
p1837
g77
tp1838
a(S'PELL_ENRL_4YR_TRANS_YR4_RT'
p1839
g77
tp1840
a(S'PELL_ENRL_2YR_TRANS_YR4_RT'
p1841
g77
tp1842
a(S'PELL_UNKN_ORIG_YR4_RT'
p1843
g77
tp1844
a(S'PELL_UNKN_4YR_TRANS_YR4_RT'
p1845
g77
tp1846
a(S'PELL_UNKN_2YR_TRANS_YR4_RT'
p1847
g77
tp1848
a(S'NOPELL_DEATH_YR4_RT'
p1849
g77
tp1850
a(S'NOPELL_COMP_ORIG_YR4_RT'
p1851
g77
tp1852
a(S'NOPELL_COMP_4YR_TRANS_YR4_RT'
p1853
g77
tp1854
a(S'NOPELL_COMP_2YR_TRANS_YR4_RT'
p1855
g77
tp1856
a(S'NOPELL_WDRAW_ORIG_YR4_RT'
p1857
g77
tp1858
a(S'NOPELL_WDRAW_4YR_TRANS_YR4_RT'
p1859
g77
tp1860
a(S'NOPELL_WDRAW_2YR_TRANS_YR4_RT'
p1861
g77
tp1862
a(S'NOPELL_ENRL_ORIG_YR4_RT'
p1863
g77
tp1864
a(S'NOPELL_ENRL_4YR_TRANS_YR4_RT'
p1865
g77
tp1866
a(S'NOPELL_ENRL_2YR_TRANS_YR4_RT'
p1867
g77
tp1868
a(S'NOPELL_UNKN_ORIG_YR4_RT'
p1869
g77
tp1870
a(S'NOPELL_UNKN_4YR_TRANS_YR4_RT'
p1871
g77
tp1872
a(S'NOPELL_UNKN_2YR_TRANS_YR4_RT'
p1873
g77
tp1874
a(S'LOAN_DEATH_YR4_RT'
p1875
g77
tp1876
a(S'LOAN_COMP_ORIG_YR4_RT'
p1877
g77
tp1878
a(S'LOAN_COMP_4YR_TRANS_YR4_RT'
p1879
g77
tp1880
a(S'LOAN_COMP_2YR_TRANS_YR4_RT'
p1881
g77
tp1882
a(S'LOAN_WDRAW_ORIG_YR4_RT'
p1883
g77
tp1884
a(S'LOAN_WDRAW_4YR_TRANS_YR4_RT'
p1885
g77
tp1886
a(S'LOAN_WDRAW_2YR_TRANS_YR4_RT'
p1887
g77
tp1888
a(S'LOAN_ENRL_ORIG_YR4_RT'
p1889
g77
tp1890
a(S'LOAN_ENRL_4YR_TRANS_YR4_RT'
p1891
g77
tp1892
a(S'LOAN_ENRL_2YR_TRANS_YR4_RT'
p1893
g77
tp1894
a(S'LOAN_UNKN_ORIG_YR4_RT'
p1895
g77
tp1896
a(S'LOAN_UNKN_4YR_TRANS_YR4_RT'
p1897
g77
tp1898
a(S'LOAN_UNKN_2YR_TRANS_YR4_RT'
p1899
g77
tp1900
a(S'NOLOAN_DEATH_YR4_RT'
p1901
g77
tp1902
a(S'NOLOAN_COMP_ORIG_YR4_RT'
p1903
g77
tp1904
a(S'NOLOAN_COMP_4YR_TRANS_YR4_RT'
p1905
g77
tp1906
a(S'NOLOAN_COMP_2YR_TRANS_YR4_RT'
p1907
g77
tp1908
a(S'NOLOAN_WDRAW_ORIG_YR4_RT'
p1909
g77
tp1910
a(S'NOLOAN_WDRAW_4YR_TRANS_YR4_RT'
p1911
g77
tp1912
a(S'NOLOAN_WDRAW_2YR_TRANS_YR4_RT'
p1913
g77
tp1914
a(S'NOLOAN_ENRL_ORIG_YR4_RT'
p1915
g77
tp1916
a(S'NOLOAN_ENRL_4YR_TRANS_YR4_RT'
p1917
g77
tp1918
a(S'NOLOAN_ENRL_2YR_TRANS_YR4_RT'
p1919
g77
tp1920
a(S'NOLOAN_UNKN_ORIG_YR4_RT'
p1921
g77
tp1922
a(S'NOLOAN_UNKN_4YR_TRANS_YR4_RT'
p1923
g77
tp1924
a(S'NOLOAN_UNKN_2YR_TRANS_YR4_RT'
p1925
g77
tp1926
a(S'FIRSTGEN_DEATH_YR4_RT'
p1927
g77
tp1928
a(S'FIRSTGEN_COMP_ORIG_YR4_RT'
p1929
g77
tp1930
a(S'FIRSTGEN_COMP_4YR_TRANS_YR4_RT'
p1931
g77
tp1932
a(S'FIRSTGEN_COMP_2YR_TRANS_YR4_RT'
p1933
g77
tp1934
a(S'FIRSTGEN_WDRAW_ORIG_YR4_RT'
p1935
g77
tp1936
a(S'FIRSTGEN_WDRAW_4YR_TRANS_YR4_RT'
p1937
g77
tp1938
a(S'FIRSTGEN_WDRAW_2YR_TRANS_YR4_RT'
p1939
g77
tp1940
a(S'FIRSTGEN_ENRL_ORIG_YR4_RT'
p1941
g77
tp1942
a(S'FIRSTGEN_ENRL_4YR_TRANS_YR4_RT'
p1943
g77
tp1944
a(S'FIRSTGEN_ENRL_2YR_TRANS_YR4_RT'
p1945
g77
tp1946
a(S'FIRSTGEN_UNKN_ORIG_YR4_RT'
p1947
g77
tp1948
a(S'FIRSTGEN_UNKN_4YR_TRANS_YR4_RT'
p1949
g77
tp1950
a(S'FIRSTGEN_UNKN_2YR_TRANS_YR4_RT'
p1951
g77
tp1952
a(S'NOT1STGEN_DEATH_YR4_RT'
p1953
g77
tp1954
a(S'NOT1STGEN_COMP_ORIG_YR4_RT'
p1955
g77
tp1956
a(S'NOT1STGEN_COMP_4YR_TRANS_YR4_RT'
p1957
g77
tp1958
a(S'NOT1STGEN_COMP_2YR_TRANS_YR4_RT'
p1959
g77
tp1960
a(S'NOT1STGEN_WDRAW_ORIG_YR4_RT'
p1961
g77
tp1962
a(S'NOT1STGEN_WDRAW_4YR_TRANS_YR4_RT'
p1963
g77
tp1964
a(S'NOT1STGEN_WDRAW_2YR_TRANS_YR4_RT'
p1965
g77
tp1966
a(S'NOT1STGEN_ENRL_ORIG_YR4_RT'
p1967
g77
tp1968
a(S'NOT1STGEN_ENRL_4YR_TRANS_YR4_RT'
p1969
g77
tp1970
a(S'NOT1STGEN_ENRL_2YR_TRANS_YR4_RT'
p1971
g77
tp1972
a(S'NOT1STGEN_UNKN_ORIG_YR4_RT'
p1973
g77
tp1974
a(S'NOT1STGEN_UNKN_4YR_TRANS_YR4_RT'
p1975
g77
tp1976
a(S'NOT1STGEN_UNKN_2YR_TRANS_YR4_RT'
p1977
g77
tp1978
a(S'DEATH_YR6_RT'
p1979
g77
tp1980
a(S'COMP_ORIG_YR6_RT'
p1981
g77
tp1982
a(S'COMP_4YR_TRANS_YR6_RT'
p1983
g77
tp1984
a(S'COMP_2YR_TRANS_YR6_RT'
p1985
g77
tp1986
a(S'WDRAW_ORIG_YR6_RT'
p1987
g77
tp1988
a(S'WDRAW_4YR_TRANS_YR6_RT'
p1989
g77
tp1990
a(S'WDRAW_2YR_TRANS_YR6_RT'
p1991
g77
tp1992
a(S'ENRL_ORIG_YR6_RT'
p1993
g77
tp1994
a(S'ENRL_4YR_TRANS_YR6_RT'
p1995
g77
tp1996
a(S'ENRL_2YR_TRANS_YR6_RT'
p1997
g77
tp1998
a(S'UNKN_ORIG_YR6_RT'
p1999
g77
tp2000
a(S'UNKN_4YR_TRANS_YR6_RT'
p2001
g77
tp2002
a(S'UNKN_2YR_TRANS_YR6_RT'
p2003
g77
tp2004
a(S'LO_INC_DEATH_YR6_RT'
p2005
g77
tp2006
a(S'LO_INC_COMP_ORIG_YR6_RT'
p2007
g77
tp2008
a(S'LO_INC_COMP_4YR_TRANS_YR6_RT'
p2009
g77
tp2010
a(S'LO_INC_COMP_2YR_TRANS_YR6_RT'
p2011
g77
tp2012
a(S'LO_INC_WDRAW_ORIG_YR6_RT'
p2013
g77
tp2014
a(S'LO_INC_WDRAW_4YR_TRANS_YR6_RT'
p2015
g77
tp2016
a(S'LO_INC_WDRAW_2YR_TRANS_YR6_RT'
p2017
g77
tp2018
a(S'LO_INC_ENRL_ORIG_YR6_RT'
p2019
g77
tp2020
a(S'LO_INC_ENRL_4YR_TRANS_YR6_RT'
p2021
g77
tp2022
a(S'LO_INC_ENRL_2YR_TRANS_YR6_RT'
p2023
g77
tp2024
a(S'LO_INC_UNKN_ORIG_YR6_RT'
p2025
g77
tp2026
a(S'LO_INC_UNKN_4YR_TRANS_YR6_RT'
p2027
g77
tp2028
a(S'LO_INC_UNKN_2YR_TRANS_YR6_RT'
p2029
g77
tp2030
a(S'MD_INC_DEATH_YR6_RT'
p2031
g77
tp2032
a(S'MD_INC_COMP_ORIG_YR6_RT'
p2033
g77
tp2034
a(S'MD_INC_COMP_4YR_TRANS_YR6_RT'
p2035
g77
tp2036
a(S'MD_INC_COMP_2YR_TRANS_YR6_RT'
p2037
g77
tp2038
a(S'MD_INC_WDRAW_ORIG_YR6_RT'
p2039
g77
tp2040
a(S'MD_INC_WDRAW_4YR_TRANS_YR6_RT'
p2041
g77
tp2042
a(S'MD_INC_WDRAW_2YR_TRANS_YR6_RT'
p2043
g77
tp2044
a(S'MD_INC_ENRL_ORIG_YR6_RT'
p2045
g77
tp2046
a(S'MD_INC_ENRL_4YR_TRANS_YR6_RT'
p2047
g77
tp2048
a(S'MD_INC_ENRL_2YR_TRANS_YR6_RT'
p2049
g77
tp2050
a(S'MD_INC_UNKN_ORIG_YR6_RT'
p2051
g77
tp2052
a(S'MD_INC_UNKN_4YR_TRANS_YR6_RT'
p2053
g77
tp2054
a(S'MD_INC_UNKN_2YR_TRANS_YR6_RT'
p2055
g77
tp2056
a(S'HI_INC_DEATH_YR6_RT'
p2057
g77
tp2058
a(S'HI_INC_COMP_ORIG_YR6_RT'
p2059
g77
tp2060
a(S'HI_INC_COMP_4YR_TRANS_YR6_RT'
p2061
g77
tp2062
a(S'HI_INC_COMP_2YR_TRANS_YR6_RT'
p2063
g77
tp2064
a(S'HI_INC_WDRAW_ORIG_YR6_RT'
p2065
g77
tp2066
a(S'HI_INC_WDRAW_4YR_TRANS_YR6_RT'
p2067
g77
tp2068
a(S'HI_INC_WDRAW_2YR_TRANS_YR6_RT'
p2069
g77
tp2070
a(S'HI_INC_ENRL_ORIG_YR6_RT'
p2071
g77
tp2072
a(S'HI_INC_ENRL_4YR_TRANS_YR6_RT'
p2073
g77
tp2074
a(S'HI_INC_ENRL_2YR_TRANS_YR6_RT'
p2075
g77
tp2076
a(S'HI_INC_UNKN_ORIG_YR6_RT'
p2077
g77
tp2078
a(S'HI_INC_UNKN_4YR_TRANS_YR6_RT'
p2079
g77
tp2080
a(S'HI_INC_UNKN_2YR_TRANS_YR6_RT'
p2081
g77
tp2082
a(S'DEP_DEATH_YR6_RT'
p2083
g77
tp2084
a(S'DEP_COMP_ORIG_YR6_RT'
p2085
g77
tp2086
a(S'DEP_COMP_4YR_TRANS_YR6_RT'
p2087
g77
tp2088
a(S'DEP_COMP_2YR_TRANS_YR6_RT'
p2089
g77
tp2090
a(S'DEP_WDRAW_ORIG_YR6_RT'
p2091
g77
tp2092
a(S'DEP_WDRAW_4YR_TRANS_YR6_RT'
p2093
g77
tp2094
a(S'DEP_WDRAW_2YR_TRANS_YR6_RT'
p2095
g77
tp2096
a(S'DEP_ENRL_ORIG_YR6_RT'
p2097
g77
tp2098
a(S'DEP_ENRL_4YR_TRANS_YR6_RT'
p2099
g77
tp2100
a(S'DEP_ENRL_2YR_TRANS_YR6_RT'
p2101
g77
tp2102
a(S'DEP_UNKN_ORIG_YR6_RT'
p2103
g77
tp2104
a(S'DEP_UNKN_4YR_TRANS_YR6_RT'
p2105
g77
tp2106
a(S'DEP_UNKN_2YR_TRANS_YR6_RT'
p2107
g77
tp2108
a(S'IND_DEATH_YR6_RT'
p2109
g77
tp2110
a(S'IND_COMP_ORIG_YR6_RT'
p2111
g77
tp2112
a(S'IND_COMP_4YR_TRANS_YR6_RT'
p2113
g77
tp2114
a(S'IND_COMP_2YR_TRANS_YR6_RT'
p2115
g77
tp2116
a(S'IND_WDRAW_ORIG_YR6_RT'
p2117
g77
tp2118
a(S'IND_WDRAW_4YR_TRANS_YR6_RT'
p2119
g77
tp2120
a(S'IND_WDRAW_2YR_TRANS_YR6_RT'
p2121
g77
tp2122
a(S'IND_ENRL_ORIG_YR6_RT'
p2123
g77
tp2124
a(S'IND_ENRL_4YR_TRANS_YR6_RT'
p2125
g77
tp2126
a(S'IND_ENRL_2YR_TRANS_YR6_RT'
p2127
g77
tp2128
a(S'IND_UNKN_ORIG_YR6_RT'
p2129
g77
tp2130
a(S'IND_UNKN_4YR_TRANS_YR6_RT'
p2131
g77
tp2132
a(S'IND_UNKN_2YR_TRANS_YR6_RT'
p2133
g77
tp2134
a(S'FEMALE_DEATH_YR6_RT'
p2135
g77
tp2136
a(S'FEMALE_COMP_ORIG_YR6_RT'
p2137
g77
tp2138
a(S'FEMALE_COMP_4YR_TRANS_YR6_RT'
p2139
g77
tp2140
a(S'FEMALE_COMP_2YR_TRANS_YR6_RT'
p2141
g77
tp2142
a(S'FEMALE_WDRAW_ORIG_YR6_RT'
p2143
g77
tp2144
a(S'FEMALE_WDRAW_4YR_TRANS_YR6_RT'
p2145
g77
tp2146
a(S'FEMALE_WDRAW_2YR_TRANS_YR6_RT'
p2147
g77
tp2148
a(S'FEMALE_ENRL_ORIG_YR6_RT'
p2149
g77
tp2150
a(S'FEMALE_ENRL_4YR_TRANS_YR6_RT'
p2151
g77
tp2152
a(S'FEMALE_ENRL_2YR_TRANS_YR6_RT'
p2153
g77
tp2154
a(S'FEMALE_UNKN_ORIG_YR6_RT'
p2155
g77
tp2156
a(S'FEMALE_UNKN_4YR_TRANS_YR6_RT'
p2157
g77
tp2158
a(S'FEMALE_UNKN_2YR_TRANS_YR6_RT'
p2159
g77
tp2160
a(S'MALE_DEATH_YR6_RT'
p2161
g77
tp2162
a(S'MALE_COMP_ORIG_YR6_RT'
p2163
g77
tp2164
a(S'MALE_COMP_4YR_TRANS_YR6_RT'
p2165
g77
tp2166
a(S'MALE_COMP_2YR_TRANS_YR6_RT'
p2167
g77
tp2168
a(S'MALE_WDRAW_ORIG_YR6_RT'
p2169
g77
tp2170
a(S'MALE_WDRAW_4YR_TRANS_YR6_RT'
p2171
g77
tp2172
a(S'MALE_WDRAW_2YR_TRANS_YR6_RT'
p2173
g77
tp2174
a(S'MALE_ENRL_ORIG_YR6_RT'
p2175
g77
tp2176
a(S'MALE_ENRL_4YR_TRANS_YR6_RT'
p2177
g77
tp2178
a(S'MALE_ENRL_2YR_TRANS_YR6_RT'
p2179
g77
tp2180
a(S'MALE_UNKN_ORIG_YR6_RT'
p2181
g77
tp2182
a(S'MALE_UNKN_4YR_TRANS_YR6_RT'
p2183
g77
tp2184
a(S'MALE_UNKN_2YR_TRANS_YR6_RT'
p2185
g77
tp2186
a(S'PELL_DEATH_YR6_RT'
p2187
g77
tp2188
a(S'PELL_COMP_ORIG_YR6_RT'
p2189
g77
tp2190
a(S'PELL_COMP_4YR_TRANS_YR6_RT'
p2191
g77
tp2192
a(S'PELL_COMP_2YR_TRANS_YR6_RT'
p2193
g77
tp2194
a(S'PELL_WDRAW_ORIG_YR6_RT'
p2195
g77
tp2196
a(S'PELL_WDRAW_4YR_TRANS_YR6_RT'
p2197
g77
tp2198
a(S'PELL_WDRAW_2YR_TRANS_YR6_RT'
p2199
g77
tp2200
a(S'PELL_ENRL_ORIG_YR6_RT'
p2201
g77
tp2202
a(S'PELL_ENRL_4YR_TRANS_YR6_RT'
p2203
g77
tp2204
a(S'PELL_ENRL_2YR_TRANS_YR6_RT'
p2205
g77
tp2206
a(S'PELL_UNKN_ORIG_YR6_RT'
p2207
g77
tp2208
a(S'PELL_UNKN_4YR_TRANS_YR6_RT'
p2209
g77
tp2210
a(S'PELL_UNKN_2YR_TRANS_YR6_RT'
p2211
g77
tp2212
a(S'NOPELL_DEATH_YR6_RT'
p2213
g77
tp2214
a(S'NOPELL_COMP_ORIG_YR6_RT'
p2215
g77
tp2216
a(S'NOPELL_COMP_4YR_TRANS_YR6_RT'
p2217
g77
tp2218
a(S'NOPELL_COMP_2YR_TRANS_YR6_RT'
p2219
g77
tp2220
a(S'NOPELL_WDRAW_ORIG_YR6_RT'
p2221
g77
tp2222
a(S'NOPELL_WDRAW_4YR_TRANS_YR6_RT'
p2223
g77
tp2224
a(S'NOPELL_WDRAW_2YR_TRANS_YR6_RT'
p2225
g77
tp2226
a(S'NOPELL_ENRL_ORIG_YR6_RT'
p2227
g77
tp2228
a(S'NOPELL_ENRL_4YR_TRANS_YR6_RT'
p2229
g77
tp2230
a(S'NOPELL_ENRL_2YR_TRANS_YR6_RT'
p2231
g77
tp2232
a(S'NOPELL_UNKN_ORIG_YR6_RT'
p2233
g77
tp2234
a(S'NOPELL_UNKN_4YR_TRANS_YR6_RT'
p2235
g77
tp2236
a(S'NOPELL_UNKN_2YR_TRANS_YR6_RT'
p2237
g77
tp2238
a(S'LOAN_DEATH_YR6_RT'
p2239
g77
tp2240
a(S'LOAN_COMP_ORIG_YR6_RT'
p2241
g77
tp2242
a(S'LOAN_COMP_4YR_TRANS_YR6_RT'
p2243
g77
tp2244
a(S'LOAN_COMP_2YR_TRANS_YR6_RT'
p2245
g77
tp2246
a(S'LOAN_WDRAW_ORIG_YR6_RT'
p2247
g77
tp2248
a(S'LOAN_WDRAW_4YR_TRANS_YR6_RT'
p2249
g77
tp2250
a(S'LOAN_WDRAW_2YR_TRANS_YR6_RT'
p2251
g77
tp2252
a(S'LOAN_ENRL_ORIG_YR6_RT'
p2253
g77
tp2254
a(S'LOAN_ENRL_4YR_TRANS_YR6_RT'
p2255
g77
tp2256
a(S'LOAN_ENRL_2YR_TRANS_YR6_RT'
p2257
g77
tp2258
a(S'LOAN_UNKN_ORIG_YR6_RT'
p2259
g77
tp2260
a(S'LOAN_UNKN_4YR_TRANS_YR6_RT'
p2261
g77
tp2262
a(S'LOAN_UNKN_2YR_TRANS_YR6_RT'
p2263
g77
tp2264
a(S'NOLOAN_DEATH_YR6_RT'
p2265
g77
tp2266
a(S'NOLOAN_COMP_ORIG_YR6_RT'
p2267
g77
tp2268
a(S'NOLOAN_COMP_4YR_TRANS_YR6_RT'
p2269
g77
tp2270
a(S'NOLOAN_COMP_2YR_TRANS_YR6_RT'
p2271
g77
tp2272
a(S'NOLOAN_WDRAW_ORIG_YR6_RT'
p2273
g77
tp2274
a(S'NOLOAN_WDRAW_4YR_TRANS_YR6_RT'
p2275
g77
tp2276
a(S'NOLOAN_WDRAW_2YR_TRANS_YR6_RT'
p2277
g77
tp2278
a(S'NOLOAN_ENRL_ORIG_YR6_RT'
p2279
g77
tp2280
a(S'NOLOAN_ENRL_4YR_TRANS_YR6_RT'
p2281
g77
tp2282
a(S'NOLOAN_ENRL_2YR_TRANS_YR6_RT'
p2283
g77
tp2284
a(S'NOLOAN_UNKN_ORIG_YR6_RT'
p2285
g77
tp2286
a(S'NOLOAN_UNKN_4YR_TRANS_YR6_RT'
p2287
g77
tp2288
a(S'NOLOAN_UNKN_2YR_TRANS_YR6_RT'
p2289
g77
tp2290
a(S'FIRSTGEN_DEATH_YR6_RT'
p2291
g77
tp2292
a(S'FIRSTGEN_COMP_ORIG_YR6_RT'
p2293
g77
tp2294
a(S'FIRSTGEN_COMP_4YR_TRANS_YR6_RT'
p2295
g77
tp2296
a(S'FIRSTGEN_COMP_2YR_TRANS_YR6_RT'
p2297
g77
tp2298
a(S'FIRSTGEN_WDRAW_ORIG_YR6_RT'
p2299
g77
tp2300
a(S'FIRSTGEN_WDRAW_4YR_TRANS_YR6_RT'
p2301
g77
tp2302
a(S'FIRSTGEN_WDRAW_2YR_TRANS_YR6_RT'
p2303
g77
tp2304
a(S'FIRSTGEN_ENRL_ORIG_YR6_RT'
p2305
g77
tp2306
a(S'FIRSTGEN_ENRL_4YR_TRANS_YR6_RT'
p2307
g77
tp2308
a(S'FIRSTGEN_ENRL_2YR_TRANS_YR6_RT'
p2309
g77
tp2310
a(S'FIRSTGEN_UNKN_ORIG_YR6_RT'
p2311
g77
tp2312
a(S'FIRSTGEN_UNKN_4YR_TRANS_YR6_RT'
p2313
g77
tp2314
a(S'FIRSTGEN_UNKN_2YR_TRANS_YR6_RT'
p2315
g77
tp2316
a(S'NOT1STGEN_DEATH_YR6_RT'
p2317
g77
tp2318
a(S'NOT1STGEN_COMP_ORIG_YR6_RT'
p2319
g77
tp2320
a(S'NOT1STGEN_COMP_4YR_TRANS_YR6_RT'
p2321
g77
tp2322
a(S'NOT1STGEN_COMP_2YR_TRANS_YR6_RT'
p2323
g77
tp2324
a(S'NOT1STGEN_WDRAW_ORIG_YR6_RT'
p2325
g77
tp2326
a(S'NOT1STGEN_WDRAW_4YR_TRANS_YR6_RT'
p2327
g77
tp2328
a(S'NOT1STGEN_WDRAW_2YR_TRANS_YR6_RT'
p2329
g77
tp2330
a(S'NOT1STGEN_ENRL_ORIG_YR6_RT'
p2331
g77
tp2332
a(S'NOT1STGEN_ENRL_4YR_TRANS_YR6_RT'
p2333
g77
tp2334
a(S'NOT1STGEN_ENRL_2YR_TRANS_YR6_RT'
p2335
g77
tp2336
a(S'NOT1STGEN_UNKN_ORIG_YR6_RT'
p2337
g77
tp2338
a(S'NOT1STGEN_UNKN_4YR_TRANS_YR6_RT'
p2339
g77
tp2340
a(S'NOT1STGEN_UNKN_2YR_TRANS_YR6_RT'
p2341
g77
tp2342
a(S'DEATH_YR8_RT'
p2343
g77
tp2344
a(S'COMP_ORIG_YR8_RT'
p2345
g77
tp2346
a(S'COMP_4YR_TRANS_YR8_RT'
p2347
g77
tp2348
a(S'COMP_2YR_TRANS_YR8_RT'
p2349
g77
tp2350
a(S'WDRAW_ORIG_YR8_RT'
p2351
g77
tp2352
a(S'WDRAW_4YR_TRANS_YR8_RT'
p2353
g77
tp2354
a(S'WDRAW_2YR_TRANS_YR8_RT'
p2355
g77
tp2356
a(S'ENRL_ORIG_YR8_RT'
p2357
g77
tp2358
a(S'ENRL_4YR_TRANS_YR8_RT'
p2359
g77
tp2360
a(S'ENRL_2YR_TRANS_YR8_RT'
p2361
g77
tp2362
a(S'UNKN_ORIG_YR8_RT'
p2363
g77
tp2364
a(S'UNKN_4YR_TRANS_YR8_RT'
p2365
g77
tp2366
a(S'UNKN_2YR_TRANS_YR8_RT'
p2367
g77
tp2368
a(S'LO_INC_DEATH_YR8_RT'
p2369
g77
tp2370
a(S'LO_INC_COMP_ORIG_YR8_RT'
p2371
g77
tp2372
a(S'LO_INC_COMP_4YR_TRANS_YR8_RT'
p2373
g77
tp2374
a(S'LO_INC_COMP_2YR_TRANS_YR8_RT'
p2375
g77
tp2376
a(S'LO_INC_WDRAW_ORIG_YR8_RT'
p2377
g77
tp2378
a(S'LO_INC_WDRAW_4YR_TRANS_YR8_RT'
p2379
g77
tp2380
a(S'LO_INC_WDRAW_2YR_TRANS_YR8_RT'
p2381
g77
tp2382
a(S'LO_INC_ENRL_ORIG_YR8_RT'
p2383
g77
tp2384
a(S'LO_INC_ENRL_4YR_TRANS_YR8_RT'
p2385
g77
tp2386
a(S'LO_INC_ENRL_2YR_TRANS_YR8_RT'
p2387
g77
tp2388
a(S'LO_INC_UNKN_ORIG_YR8_RT'
p2389
g77
tp2390
a(S'LO_INC_UNKN_4YR_TRANS_YR8_RT'
p2391
g77
tp2392
a(S'LO_INC_UNKN_2YR_TRANS_YR8_RT'
p2393
g77
tp2394
a(S'MD_INC_DEATH_YR8_RT'
p2395
g77
tp2396
a(S'MD_INC_COMP_ORIG_YR8_RT'
p2397
g77
tp2398
a(S'MD_INC_COMP_4YR_TRANS_YR8_RT'
p2399
g77
tp2400
a(S'MD_INC_COMP_2YR_TRANS_YR8_RT'
p2401
g77
tp2402
a(S'MD_INC_WDRAW_ORIG_YR8_RT'
p2403
g77
tp2404
a(S'MD_INC_WDRAW_4YR_TRANS_YR8_RT'
p2405
g77
tp2406
a(S'MD_INC_WDRAW_2YR_TRANS_YR8_RT'
p2407
g77
tp2408
a(S'MD_INC_ENRL_ORIG_YR8_RT'
p2409
g77
tp2410
a(S'MD_INC_ENRL_4YR_TRANS_YR8_RT'
p2411
g77
tp2412
a(S'MD_INC_ENRL_2YR_TRANS_YR8_RT'
p2413
g77
tp2414
a(S'MD_INC_UNKN_ORIG_YR8_RT'
p2415
g77
tp2416
a(S'MD_INC_UNKN_4YR_TRANS_YR8_RT'
p2417
g77
tp2418
a(S'MD_INC_UNKN_2YR_TRANS_YR8_RT'
p2419
g77
tp2420
a(S'HI_INC_DEATH_YR8_RT'
p2421
g77
tp2422
a(S'HI_INC_COMP_ORIG_YR8_RT'
p2423
g77
tp2424
a(S'HI_INC_COMP_4YR_TRANS_YR8_RT'
p2425
g77
tp2426
a(S'HI_INC_COMP_2YR_TRANS_YR8_RT'
p2427
g77
tp2428
a(S'HI_INC_WDRAW_ORIG_YR8_RT'
p2429
g77
tp2430
a(S'HI_INC_WDRAW_4YR_TRANS_YR8_RT'
p2431
g77
tp2432
a(S'HI_INC_WDRAW_2YR_TRANS_YR8_RT'
p2433
g77
tp2434
a(S'HI_INC_ENRL_ORIG_YR8_RT'
p2435
g77
tp2436
a(S'HI_INC_ENRL_4YR_TRANS_YR8_RT'
p2437
g77
tp2438
a(S'HI_INC_ENRL_2YR_TRANS_YR8_RT'
p2439
g77
tp2440
a(S'HI_INC_UNKN_ORIG_YR8_RT'
p2441
g77
tp2442
a(S'HI_INC_UNKN_4YR_TRANS_YR8_RT'
p2443
g77
tp2444
a(S'HI_INC_UNKN_2YR_TRANS_YR8_RT'
p2445
g77
tp2446
a(S'DEP_DEATH_YR8_RT'
p2447
g77
tp2448
a(S'DEP_COMP_ORIG_YR8_RT'
p2449
g77
tp2450
a(S'DEP_COMP_4YR_TRANS_YR8_RT'
p2451
g77
tp2452
a(S'DEP_COMP_2YR_TRANS_YR8_RT'
p2453
g77
tp2454
a(S'DEP_WDRAW_ORIG_YR8_RT'
p2455
g77
tp2456
a(S'DEP_WDRAW_4YR_TRANS_YR8_RT'
p2457
g77
tp2458
a(S'DEP_WDRAW_2YR_TRANS_YR8_RT'
p2459
g77
tp2460
a(S'DEP_ENRL_ORIG_YR8_RT'
p2461
g77
tp2462
a(S'DEP_ENRL_4YR_TRANS_YR8_RT'
p2463
g77
tp2464
a(S'DEP_ENRL_2YR_TRANS_YR8_RT'
p2465
g77
tp2466
a(S'DEP_UNKN_ORIG_YR8_RT'
p2467
g77
tp2468
a(S'DEP_UNKN_4YR_TRANS_YR8_RT'
p2469
g77
tp2470
a(S'DEP_UNKN_2YR_TRANS_YR8_RT'
p2471
g77
tp2472
a(S'IND_DEATH_YR8_RT'
p2473
g77
tp2474
a(S'IND_COMP_ORIG_YR8_RT'
p2475
g77
tp2476
a(S'IND_COMP_4YR_TRANS_YR8_RT'
p2477
g77
tp2478
a(S'IND_COMP_2YR_TRANS_YR8_RT'
p2479
g77
tp2480
a(S'IND_WDRAW_ORIG_YR8_RT'
p2481
g77
tp2482
a(S'IND_WDRAW_4YR_TRANS_YR8_RT'
p2483
g77
tp2484
a(S'IND_WDRAW_2YR_TRANS_YR8_RT'
p2485
g77
tp2486
a(S'IND_ENRL_ORIG_YR8_RT'
p2487
g77
tp2488
a(S'IND_ENRL_4YR_TRANS_YR8_RT'
p2489
g77
tp2490
a(S'IND_ENRL_2YR_TRANS_YR8_RT'
p2491
g77
tp2492
a(S'IND_UNKN_ORIG_YR8_RT'
p2493
g77
tp2494
a(S'IND_UNKN_4YR_TRANS_YR8_RT'
p2495
g77
tp2496
a(S'IND_UNKN_2YR_TRANS_YR8_RT'
p2497
g77
tp2498
a(S'FEMALE_DEATH_YR8_RT'
p2499
g77
tp2500
a(S'FEMALE_COMP_ORIG_YR8_RT'
p2501
g77
tp2502
a(S'FEMALE_COMP_4YR_TRANS_YR8_RT'
p2503
g77
tp2504
a(S'FEMALE_COMP_2YR_TRANS_YR8_RT'
p2505
g77
tp2506
a(S'FEMALE_WDRAW_ORIG_YR8_RT'
p2507
g77
tp2508
a(S'FEMALE_WDRAW_4YR_TRANS_YR8_RT'
p2509
g77
tp2510
a(S'FEMALE_WDRAW_2YR_TRANS_YR8_RT'
p2511
g77
tp2512
a(S'FEMALE_ENRL_ORIG_YR8_RT'
p2513
g77
tp2514
a(S'FEMALE_ENRL_4YR_TRANS_YR8_RT'
p2515
g77
tp2516
a(S'FEMALE_ENRL_2YR_TRANS_YR8_RT'
p2517
g77
tp2518
a(S'FEMALE_UNKN_ORIG_YR8_RT'
p2519
g77
tp2520
a(S'FEMALE_UNKN_4YR_TRANS_YR8_RT'
p2521
g77
tp2522
a(S'FEMALE_UNKN_2YR_TRANS_YR8_RT'
p2523
g77
tp2524
a(S'MALE_DEATH_YR8_RT'
p2525
g77
tp2526
a(S'MALE_COMP_ORIG_YR8_RT'
p2527
g77
tp2528
a(S'MALE_COMP_4YR_TRANS_YR8_RT'
p2529
g77
tp2530
a(S'MALE_COMP_2YR_TRANS_YR8_RT'
p2531
g77
tp2532
a(S'MALE_WDRAW_ORIG_YR8_RT'
p2533
g77
tp2534
a(S'MALE_WDRAW_4YR_TRANS_YR8_RT'
p2535
g77
tp2536
a(S'MALE_WDRAW_2YR_TRANS_YR8_RT'
p2537
g77
tp2538
a(S'MALE_ENRL_ORIG_YR8_RT'
p2539
g77
tp2540
a(S'MALE_ENRL_4YR_TRANS_YR8_RT'
p2541
g77
tp2542
a(S'MALE_ENRL_2YR_TRANS_YR8_RT'
p2543
g77
tp2544
a(S'MALE_UNKN_ORIG_YR8_RT'
p2545
g77
tp2546
a(S'MALE_UNKN_4YR_TRANS_YR8_RT'
p2547
g77
tp2548
a(S'MALE_UNKN_2YR_TRANS_YR8_RT'
p2549
g77
tp2550
a(S'PELL_DEATH_YR8_RT'
p2551
g77
tp2552
a(S'PELL_COMP_ORIG_YR8_RT'
p2553
g77
tp2554
a(S'PELL_COMP_4YR_TRANS_YR8_RT'
p2555
g77
tp2556
a(S'PELL_COMP_2YR_TRANS_YR8_RT'
p2557
g77
tp2558
a(S'PELL_WDRAW_ORIG_YR8_RT'
p2559
g77
tp2560
a(S'PELL_WDRAW_4YR_TRANS_YR8_RT'
p2561
g77
tp2562
a(S'PELL_WDRAW_2YR_TRANS_YR8_RT'
p2563
g77
tp2564
a(S'PELL_ENRL_ORIG_YR8_RT'
p2565
g77
tp2566
a(S'PELL_ENRL_4YR_TRANS_YR8_RT'
p2567
g77
tp2568
a(S'PELL_ENRL_2YR_TRANS_YR8_RT'
p2569
g77
tp2570
a(S'PELL_UNKN_ORIG_YR8_RT'
p2571
g77
tp2572
a(S'PELL_UNKN_4YR_TRANS_YR8_RT'
p2573
g77
tp2574
a(S'PELL_UNKN_2YR_TRANS_YR8_RT'
p2575
g77
tp2576
a(S'NOPELL_DEATH_YR8_RT'
p2577
g77
tp2578
a(S'NOPELL_COMP_ORIG_YR8_RT'
p2579
g77
tp2580
a(S'NOPELL_COMP_4YR_TRANS_YR8_RT'
p2581
g77
tp2582
a(S'NOPELL_COMP_2YR_TRANS_YR8_RT'
p2583
g77
tp2584
a(S'NOPELL_WDRAW_ORIG_YR8_RT'
p2585
g77
tp2586
a(S'NOPELL_WDRAW_4YR_TRANS_YR8_RT'
p2587
g77
tp2588
a(S'NOPELL_WDRAW_2YR_TRANS_YR8_RT'
p2589
g77
tp2590
a(S'NOPELL_ENRL_ORIG_YR8_RT'
p2591
g77
tp2592
a(S'NOPELL_ENRL_4YR_TRANS_YR8_RT'
p2593
g77
tp2594
a(S'NOPELL_ENRL_2YR_TRANS_YR8_RT'
p2595
g77
tp2596
a(S'NOPELL_UNKN_ORIG_YR8_RT'
p2597
g77
tp2598
a(S'NOPELL_UNKN_4YR_TRANS_YR8_RT'
p2599
g77
tp2600
a(S'NOPELL_UNKN_2YR_TRANS_YR8_RT'
p2601
g77
tp2602
a(S'LOAN_DEATH_YR8_RT'
p2603
g77
tp2604
a(S'LOAN_COMP_ORIG_YR8_RT'
p2605
g77
tp2606
a(S'LOAN_COMP_4YR_TRANS_YR8_RT'
p2607
g77
tp2608
a(S'LOAN_COMP_2YR_TRANS_YR8_RT'
p2609
g77
tp2610
a(S'LOAN_WDRAW_ORIG_YR8_RT'
p2611
g77
tp2612
a(S'LOAN_WDRAW_4YR_TRANS_YR8_RT'
p2613
g77
tp2614
a(S'LOAN_WDRAW_2YR_TRANS_YR8_RT'
p2615
g77
tp2616
a(S'LOAN_ENRL_ORIG_YR8_RT'
p2617
g77
tp2618
a(S'LOAN_ENRL_4YR_TRANS_YR8_RT'
p2619
g77
tp2620
a(S'LOAN_ENRL_2YR_TRANS_YR8_RT'
p2621
g77
tp2622
a(S'LOAN_UNKN_ORIG_YR8_RT'
p2623
g77
tp2624
a(S'LOAN_UNKN_4YR_TRANS_YR8_RT'
p2625
g77
tp2626
a(S'LOAN_UNKN_2YR_TRANS_YR8_RT'
p2627
g77
tp2628
a(S'NOLOAN_DEATH_YR8_RT'
p2629
g77
tp2630
a(S'NOLOAN_COMP_ORIG_YR8_RT'
p2631
g77
tp2632
a(S'NOLOAN_COMP_4YR_TRANS_YR8_RT'
p2633
g77
tp2634
a(S'NOLOAN_COMP_2YR_TRANS_YR8_RT'
p2635
g77
tp2636
a(S'NOLOAN_WDRAW_ORIG_YR8_RT'
p2637
g77
tp2638
a(S'NOLOAN_WDRAW_4YR_TRANS_YR8_RT'
p2639
g77
tp2640
a(S'NOLOAN_WDRAW_2YR_TRANS_YR8_RT'
p2641
g77
tp2642
a(S'NOLOAN_ENRL_ORIG_YR8_RT'
p2643
g77
tp2644
a(S'NOLOAN_ENRL_4YR_TRANS_YR8_RT'
p2645
g77
tp2646
a(S'NOLOAN_ENRL_2YR_TRANS_YR8_RT'
p2647
g77
tp2648
a(S'NOLOAN_UNKN_ORIG_YR8_RT'
p2649
g77
tp2650
a(S'NOLOAN_UNKN_4YR_TRANS_YR8_RT'
p2651
g77
tp2652
a(S'NOLOAN_UNKN_2YR_TRANS_YR8_RT'
p2653
g77
tp2654
a(S'FIRSTGEN_DEATH_YR8_RT'
p2655
g77
tp2656
a(S'FIRSTGEN_COMP_ORIG_YR8_RT'
p2657
g77
tp2658
a(S'FIRSTGEN_COMP_4YR_TRANS_YR8_RT'
p2659
g77
tp2660
a(S'FIRSTGEN_COMP_2YR_TRANS_YR8_RT'
p2661
g77
tp2662
a(S'FIRSTGEN_WDRAW_ORIG_YR8_RT'
p2663
g77
tp2664
a(S'FIRSTGEN_WDRAW_4YR_TRANS_YR8_RT'
p2665
g77
tp2666
a(S'FIRSTGEN_WDRAW_2YR_TRANS_YR8_RT'
p2667
g77
tp2668
a(S'FIRSTGEN_ENRL_ORIG_YR8_RT'
p2669
g77
tp2670
a(S'FIRSTGEN_ENRL_4YR_TRANS_YR8_RT'
p2671
g77
tp2672
a(S'FIRSTGEN_ENRL_2YR_TRANS_YR8_RT'
p2673
g77
tp2674
a(S'FIRSTGEN_UNKN_ORIG_YR8_RT'
p2675
g77
tp2676
a(S'FIRSTGEN_UNKN_4YR_TRANS_YR8_RT'
p2677
g77
tp2678
a(S'FIRSTGEN_UNKN_2YR_TRANS_YR8_RT'
p2679
g77
tp2680
a(S'NOT1STGEN_DEATH_YR8_RT'
p2681
g77
tp2682
a(S'NOT1STGEN_COMP_ORIG_YR8_RT'
p2683
g77
tp2684
a(S'NOT1STGEN_COMP_4YR_TRANS_YR8_RT'
p2685
g77
tp2686
a(S'NOT1STGEN_COMP_2YR_TRANS_YR8_RT'
p2687
g77
tp2688
a(S'NOT1STGEN_WDRAW_ORIG_YR8_RT'
p2689
g77
tp2690
a(S'NOT1STGEN_WDRAW_4YR_TRANS_YR8_RT'
p2691
g77
tp2692
a(S'NOT1STGEN_WDRAW_2YR_TRANS_YR8_RT'
p2693
g77
tp2694
a(S'NOT1STGEN_ENRL_ORIG_YR8_RT'
p2695
g77
tp2696
a(S'NOT1STGEN_ENRL_4YR_TRANS_YR8_RT'
p2697
g77
tp2698
a(S'NOT1STGEN_ENRL_2YR_TRANS_YR8_RT'
p2699
g77
tp2700
a(S'NOT1STGEN_UNKN_ORIG_YR8_RT'
p2701
g77
tp2702
a(S'NOT1STGEN_UNKN_4YR_TRANS_YR8_RT'
p2703
g77
tp2704
a(S'NOT1STGEN_UNKN_2YR_TRANS_YR8_RT'
p2705
g77
tp2706
a(S'RPY_1YR_RT'
p2707
g2
tp2708
a(S'COMPL_RPY_1YR_RT'
p2709
g2
tp2710
a(S'NONCOM_RPY_1YR_RT'
p2711
g2
tp2712
a(S'LO_INC_RPY_1YR_RT'
p2713
g2
tp2714
a(S'MD_INC_RPY_1YR_RT'
p2715
g2
tp2716
a(S'HI_INC_RPY_1YR_RT'
p2717
g2
tp2718
a(S'DEP_RPY_1YR_RT'
p2719
g2
tp2720
a(S'IND_RPY_1YR_RT'
p2721
g2
tp2722
a(S'PELL_RPY_1YR_RT'
p2723
g2
tp2724
a(S'NOPELL_RPY_1YR_RT'
p2725
g2
tp2726
a(S'FEMALE_RPY_1YR_RT'
p2727
g2
tp2728
a(S'MALE_RPY_1YR_RT'
p2729
g2
tp2730
a(S'FIRSTGEN_RPY_1YR_RT'
p2731
g2
tp2732
a(S'NOTFIRSTGEN_RPY_1YR_RT'
p2733
g2
tp2734
a(S'RPY_3YR_RT'
p2735
g2
tp2736
a(S'COMPL_RPY_3YR_RT'
p2737
g2
tp2738
a(S'NONCOM_RPY_3YR_RT'
p2739
g2
tp2740
a(S'LO_INC_RPY_3YR_RT'
p2741
g2
tp2742
a(S'MD_INC_RPY_3YR_RT'
p2743
g2
tp2744
a(S'HI_INC_RPY_3YR_RT'
p2745
g2
tp2746
a(S'DEP_RPY_3YR_RT'
p2747
g2
tp2748
a(S'IND_RPY_3YR_RT'
p2749
g2
tp2750
a(S'PELL_RPY_3YR_RT'
p2751
g2
tp2752
a(S'NOPELL_RPY_3YR_RT'
p2753
g2
tp2754
a(S'FEMALE_RPY_3YR_RT'
p2755
g2
tp2756
a(S'MALE_RPY_3YR_RT'
p2757
g2
tp2758
a(S'FIRSTGEN_RPY_3YR_RT'
p2759
g2
tp2760
a(S'NOTFIRSTGEN_RPY_3YR_RT'
p2761
g2
tp2762
a(S'RPY_5YR_RT'
p2763
g2
tp2764
a(S'COMPL_RPY_5YR_RT'
p2765
g2
tp2766
a(S'NONCOM_RPY_5YR_RT'
p2767
g2
tp2768
a(S'LO_INC_RPY_5YR_RT'
p2769
g2
tp2770
a(S'MD_INC_RPY_5YR_RT'
p2771
g2
tp2772
a(S'HI_INC_RPY_5YR_RT'
p2773
g2
tp2774
a(S'DEP_RPY_5YR_RT'
p2775
g2
tp2776
a(S'IND_RPY_5YR_RT'
p2777
g2
tp2778
a(S'PELL_RPY_5YR_RT'
p2779
g2
tp2780
a(S'NOPELL_RPY_5YR_RT'
p2781
g2
tp2782
a(S'FEMALE_RPY_5YR_RT'
p2783
g2
tp2784
a(S'MALE_RPY_5YR_RT'
p2785
g2
tp2786
a(S'FIRSTGEN_RPY_5YR_RT'
p2787
g2
tp2788
a(S'NOTFIRSTGEN_RPY_5YR_RT'
p2789
g2
tp2790
a(S'RPY_7YR_RT'
p2791
g2
tp2792
a(S'COMPL_RPY_7YR_RT'
p2793
g2
tp2794
a(S'NONCOM_RPY_7YR_RT'
p2795
g2
tp2796
a(S'LO_INC_RPY_7YR_RT'
p2797
g2
tp2798
a(S'MD_INC_RPY_7YR_RT'
p2799
g2
tp2800
a(S'HI_INC_RPY_7YR_RT'
p2801
g2
tp2802
a(S'DEP_RPY_7YR_RT'
p2803
g2
tp2804
a(S'IND_RPY_7YR_RT'
p2805
g2
tp2806
a(S'PELL_RPY_7YR_RT'
p2807
g2
tp2808
a(S'NOPELL_RPY_7YR_RT'
p2809
g2
tp2810
a(S'FEMALE_RPY_7YR_RT'
p2811
g2
tp2812
a(S'MALE_RPY_7YR_RT'
p2813
g2
tp2814
a(S'FIRSTGEN_RPY_7YR_RT'
p2815
g2
tp2816
a(S'NOTFIRSTGEN_RPY_7YR_RT'
p2817
g2
tp2818
a(S'INC_PCT_LO'
p2819
g77
tp2820
a(S'DEP_STAT_PCT_IND'
p2821
g77
tp2822
a(S'DEP_INC_PCT_LO'
p2823
g77
tp2824
a(S'IND_INC_PCT_LO'
p2825
g77
tp2826
a(S'PAR_ED_PCT_1STGEN'
p2827
g77
tp2828
a(S'INC_PCT_M1'
p2829
g77
tp2830
a(S'INC_PCT_M2'
p2831
g77
tp2832
a(S'INC_PCT_H1'
p2833
g77
tp2834
a(S'INC_PCT_H2'
p2835
g77
tp2836
a(S'DEP_INC_PCT_M1'
p2837
g77
tp2838
a(S'DEP_INC_PCT_M2'
p2839
g77
tp2840
a(S'DEP_INC_PCT_H1'
p2841
g77
tp2842
a(S'DEP_INC_PCT_H2'
p2843
g77
tp2844
a(S'IND_INC_PCT_M1'
p2845
g77
tp2846
a(S'IND_INC_PCT_M2'
p2847
g77
tp2848
a(S'IND_INC_PCT_H1'
p2849
g77
tp2850
a(S'IND_INC_PCT_H2'
p2851
g77
tp2852
a(S'PAR_ED_PCT_MS'
p2853
g77
tp2854
a(S'PAR_ED_PCT_HS'
p2855
g77
tp2856
a(S'PAR_ED_PCT_PS'
p2857
g77
tp2858
a(S'APPL_SCH_PCT_GE2'
p2859
g77
tp2860
a(S'APPL_SCH_PCT_GE3'
p2861
g77
tp2862
a(S'APPL_SCH_PCT_GE4'
p2863
g77
tp2864
a(S'APPL_SCH_PCT_GE5'
p2865
g77
tp2866
a(S'DEP_INC_AVG'
p2867
g2
tp2868
a(S'IND_INC_AVG'
p2869
g2
tp2870
a(S'OVERALL_YR2_N'
p2871
g77
tp2872
a(S'LO_INC_YR2_N'
p2873
g77
tp2874
a(S'MD_INC_YR2_N'
p2875
g77
tp2876
a(S'HI_INC_YR2_N'
p2877
g77
tp2878
a(S'DEP_YR2_N'
p2879
g77
tp2880
a(S'IND_YR2_N'
p2881
g77
tp2882
a(S'FEMALE_YR2_N'
p2883
g77
tp2884
a(S'MALE_YR2_N'
p2885
g77
tp2886
a(S'PELL_YR2_N'
p2887
g77
tp2888
a(S'NOPELL_YR2_N'
p2889
g77
tp2890
a(S'LOAN_YR2_N'
p2891
g77
tp2892
a(S'NOLOAN_YR2_N'
p2893
g77
tp2894
a(S'FIRSTGEN_YR2_N'
p2895
g77
tp2896
a(S'NOT1STGEN_YR2_N'
p2897
g77
tp2898
a(S'OVERALL_YR3_N'
p2899
g77
tp2900
a(S'LO_INC_YR3_N'
p2901
g77
tp2902
a(S'MD_INC_YR3_N'
p2903
g77
tp2904
a(S'HI_INC_YR3_N'
p2905
g77
tp2906
a(S'DEP_YR3_N'
p2907
g77
tp2908
a(S'IND_YR3_N'
p2909
g77
tp2910
a(S'FEMALE_YR3_N'
p2911
g77
tp2912
a(S'MALE_YR3_N'
p2913
g77
tp2914
a(S'PELL_YR3_N'
p2915
g77
tp2916
a(S'NOPELL_YR3_N'
p2917
g77
tp2918
a(S'LOAN_YR3_N'
p2919
g77
tp2920
a(S'NOLOAN_YR3_N'
p2921
g77
tp2922
a(S'FIRSTGEN_YR3_N'
p2923
g77
tp2924
a(S'NOT1STGEN_YR3_N'
p2925
g77
tp2926
a(S'OVERALL_YR4_N'
p2927
g77
tp2928
a(S'LO_INC_YR4_N'
p2929
g77
tp2930
a(S'MD_INC_YR4_N'
p2931
g77
tp2932
a(S'HI_INC_YR4_N'
p2933
g77
tp2934
a(S'DEP_YR4_N'
p2935
g77
tp2936
a(S'IND_YR4_N'
p2937
g77
tp2938
a(S'FEMALE_YR4_N'
p2939
g77
tp2940
a(S'MALE_YR4_N'
p2941
g77
tp2942
a(S'PELL_YR4_N'
p2943
g77
tp2944
a(S'NOPELL_YR4_N'
p2945
g77
tp2946
a(S'LOAN_YR4_N'
p2947
g77
tp2948
a(S'NOLOAN_YR4_N'
p2949
g77
tp2950
a(S'FIRSTGEN_YR4_N'
p2951
g77
tp2952
a(S'NOT1STGEN_YR4_N'
p2953
g77
tp2954
a(S'OVERALL_YR6_N'
p2955
g77
tp2956
a(S'LO_INC_YR6_N'
p2957
g77
tp2958
a(S'MD_INC_YR6_N'
p2959
g77
tp2960
a(S'HI_INC_YR6_N'
p2961
g77
tp2962
a(S'DEP_YR6_N'
p2963
g77
tp2964
a(S'IND_YR6_N'
p2965
g77
tp2966
a(S'FEMALE_YR6_N'
p2967
g77
tp2968
a(S'MALE_YR6_N'
p2969
g77
tp2970
a(S'PELL_YR6_N'
p2971
g77
tp2972
a(S'NOPELL_YR6_N'
p2973
g77
tp2974
a(S'LOAN_YR6_N'
p2975
g77
tp2976
a(S'NOLOAN_YR6_N'
p2977
g77
tp2978
a(S'FIRSTGEN_YR6_N'
p2979
g77
tp2980
a(S'NOT1STGEN_YR6_N'
p2981
g77
tp2982
a(S'OVERALL_YR8_N'
p2983
g77
tp2984
a(S'LO_INC_YR8_N'
p2985
g77
tp2986
a(S'MD_INC_YR8_N'
p2987
g77
tp2988
a(S'HI_INC_YR8_N'
p2989
g77
tp2990
a(S'DEP_YR8_N'
p2991
g77
tp2992
a(S'IND_YR8_N'
p2993
g77
tp2994
a(S'FEMALE_YR8_N'
p2995
g77
tp2996
a(S'MALE_YR8_N'
p2997
g77
tp2998
a(S'PELL_YR8_N'
p2999
g77
tp3000
a(S'NOPELL_YR8_N'
p3001
g77
tp3002
a(S'LOAN_YR8_N'
p3003
g77
tp3004
a(S'NOLOAN_YR8_N'
p3005
g77
tp3006
a(S'FIRSTGEN_YR8_N'
p3007
g77
tp3008
a(S'NOT1STGEN_YR8_N'
p3009
g77
tp3010
a(S'DEBT_MDN'
p3011
g77
tp3012
a(S'GRAD_DEBT_MDN'
p3013
g2
tp3014
a(S'WDRAW_DEBT_MDN'
p3015
g2
tp3016
a(S'LO_INC_DEBT_MDN'
p3017
g2
tp3018
a(S'MD_INC_DEBT_MDN'
p3019
g2
tp3020
a(S'HI_INC_DEBT_MDN'
p3021
g2
tp3022
a(S'DEP_DEBT_MDN'
p3023
g2
tp3024
a(S'IND_DEBT_MDN'
p3025
g2
tp3026
a(S'PELL_DEBT_MDN'
p3027
g2
tp3028
a(S'NOPELL_DEBT_MDN'
p3029
g2
tp3030
a(S'FEMALE_DEBT_MDN'
p3031
g2
tp3032
a(S'MALE_DEBT_MDN'
p3033
g2
tp3034
a(S'FIRSTGEN_DEBT_MDN'
p3035
g2
tp3036
a(S'NOTFIRSTGEN_DEBT_MDN'
p3037
g2
tp3038
a(S'DEBT_N'
p3039
g2
tp3040
a(S'GRAD_DEBT_N'
p3041
g2
tp3042
a(S'WDRAW_DEBT_N'
p3043
g2
tp3044
a(S'LO_INC_DEBT_N'
p3045
g2
tp3046
a(S'MD_INC_DEBT_N'
p3047
g2
tp3048
a(S'HI_INC_DEBT_N'
p3049
g2
tp3050
a(S'DEP_DEBT_N'
p3051
g2
tp3052
a(S'IND_DEBT_N'
p3053
g2
tp3054
a(S'PELL_DEBT_N'
p3055
g2
tp3056
a(S'NOPELL_DEBT_N'
p3057
g2
tp3058
a(S'FEMALE_DEBT_N'
p3059
g2
tp3060
a(S'MALE_DEBT_N'
p3061
g2
tp3062
a(S'FIRSTGEN_DEBT_N'
p3063
g2
tp3064
a(S'NOTFIRSTGEN_DEBT_N'
p3065
g2
tp3066
a(S'GRAD_DEBT_MDN10YR'
p3067
g2
tp3068
a(S'CUML_DEBT_N'
p3069
g2
tp3070
a(S'CUML_DEBT_P90'
p3071
g2
tp3072
a(S'CUML_DEBT_P75'
p3073
g2
tp3074
a(S'CUML_DEBT_P25'
p3075
g2
tp3076
a(S'CUML_DEBT_P10'
p3077
g2
tp3078
a(S'INC_N'
p3079
g2
tp3080
a(S'DEP_INC_N'
p3081
g2
tp3082
a(S'IND_INC_N'
p3083
g2
tp3084
a(S'DEP_STAT_N'
p3085
g2
tp3086
a(S'PAR_ED_N'
p3087
g2
tp3088
a(S'APPL_SCH_N'
p3089
g2
tp3090
a(S'REPAY_DT_MDN'
p3091
g2
tp3092
a(S'SEPAR_DT_MDN'
p3093
g2
tp3094
a(S'REPAY_DT_N'
p3095
g2
tp3096
a(S'SEPAR_DT_N'
p3097
g2
tp3098
a(S'RPY_1YR_N'
p3099
g2
tp3100
a(S'COMPL_RPY_1YR_N'
p3101
g2
tp3102
a(S'NONCOM_RPY_1YR_N'
p3103
g2
tp3104
a(S'LO_INC_RPY_1YR_N'
p3105
g2
tp3106
a(S'MD_INC_RPY_1YR_N'
p3107
g2
tp3108
a(S'HI_INC_RPY_1YR_N'
p3109
g2
tp3110
a(S'DEP_RPY_1YR_N'
p3111
g2
tp3112
a(S'IND_RPY_1YR_N'
p3113
g2
tp3114
a(S'PELL_RPY_1YR_N'
p3115
g2
tp3116
a(S'NOPELL_RPY_1YR_N'
p3117
g2
tp3118
a(S'FEMALE_RPY_1YR_N'
p3119
g2
tp3120
a(S'MALE_RPY_1YR_N'
p3121
g2
tp3122
a(S'FIRSTGEN_RPY_1YR_N'
p3123
g2
tp3124
a(S'NOTFIRSTGEN_RPY_1YR_N'
p3125
g2
tp3126
a(S'RPY_3YR_N'
p3127
g2
tp3128
a(S'COMPL_RPY_3YR_N'
p3129
g2
tp3130
a(S'NONCOM_RPY_3YR_N'
p3131
g2
tp3132
a(S'LO_INC_RPY_3YR_N'
p3133
g2
tp3134
a(S'MD_INC_RPY_3YR_N'
p3135
g2
tp3136
a(S'HI_INC_RPY_3YR_N'
p3137
g2
tp3138
a(S'DEP_RPY_3YR_N'
p3139
g2
tp3140
a(S'IND_RPY_3YR_N'
p3141
g2
tp3142
a(S'PELL_RPY_3YR_N'
p3143
g2
tp3144
a(S'NOPELL_RPY_3YR_N'
p3145
g2
tp3146
a(S'FEMALE_RPY_3YR_N'
p3147
g2
tp3148
a(S'MALE_RPY_3YR_N'
p3149
g2
tp3150
a(S'FIRSTGEN_RPY_3YR_N'
p3151
g2
tp3152
a(S'NOTFIRSTGEN_RPY_3YR_N'
p3153
g2
tp3154
a(S'RPY_5YR_N'
p3155
g2
tp3156
a(S'COMPL_RPY_5YR_N'
p3157
g2
tp3158
a(S'NONCOM_RPY_5YR_N'
p3159
g2
tp3160
a(S'LO_INC_RPY_5YR_N'
p3161
g2
tp3162
a(S'MD_INC_RPY_5YR_N'
p3163
g2
tp3164
a(S'HI_INC_RPY_5YR_N'
p3165
g2
tp3166
a(S'DEP_RPY_5YR_N'
p3167
g2
tp3168
a(S'IND_RPY_5YR_N'
p3169
g2
tp3170
a(S'PELL_RPY_5YR_N'
p3171
g2
tp3172
a(S'NOPELL_RPY_5YR_N'
p3173
g2
tp3174
a(S'FEMALE_RPY_5YR_N'
p3175
g2
tp3176
a(S'MALE_RPY_5YR_N'
p3177
g2
tp3178
a(S'FIRSTGEN_RPY_5YR_N'
p3179
g2
tp3180
a(S'NOTFIRSTGEN_RPY_5YR_N'
p3181
g2
tp3182
a(S'RPY_7YR_N'
p3183
g2
tp3184
a(S'COMPL_RPY_7YR_N'
p3185
g2
tp3186
a(S'NONCOM_RPY_7YR_N'
p3187
g2
tp3188
a(S'LO_INC_RPY_7YR_N'
p3189
g2
tp3190
a(S'MD_INC_RPY_7YR_N'
p3191
g2
tp3192
a(S'HI_INC_RPY_7YR_N'
p3193
g2
tp3194
a(S'DEP_RPY_7YR_N'
p3195
g2
tp3196
a(S'IND_RPY_7YR_N'
p3197
g2
tp3198
a(S'PELL_RPY_7YR_N'
p3199
g2
tp3200
a(S'NOPELL_RPY_7YR_N'
p3201
g2
tp3202
a(S'FEMALE_RPY_7YR_N'
p3203
g2
tp3204
a(S'MALE_RPY_7YR_N'
p3205
g2
tp3206
a(S'FIRSTGEN_RPY_7YR_N'
p3207
g2
tp3208
a(S'NOTFIRSTGEN_RPY_7YR_N'
p3209
g2
tp3210
a(S'COUNT_ED'
p3211
g2
tp3212
a(S'LOAN_EVER'
p3213
g2
tp3214
a(S'PELL_EVER'
p3215
g2
tp3216
a(S'AGE_ENTRY'
p3217
g2
tp3218
a(S'AGE_ENTRY_SQ'
p3219
g2
tp3220
a(S'AGEGE24'
p3221
g2
tp3222
a(S'FEMALE'
p3223
g2
tp3224
a(S'MARRIED'
p3225
g2
tp3226
a(S'DEPENDENT'
p3227
g2
tp3228
a(S'VETERAN'
p3229
g2
tp3230
a(S'FIRST_GEN'
p3231
g2
tp3232
a(S'FAMINC'
p3233
g23
tp3234
a(S'MD_FAMINC'
p3235
g23
tp3236
a(S'FAMINC_IND'
p3237
g23
tp3238
a(S'LNFAMINC'
p3239
g23
tp3240
a(S'LNFAMINC_IND'
p3241
g23
tp3242
a(S'PCT_WHITE'
p3243
g2
tp3244
a(S'PCT_BLACK'
p3245
g2
tp3246
a(S'PCT_ASIAN'
p3247
g2
tp3248
a(S'PCT_HISPANIC'
p3249
g2
tp3250
a(S'PCT_BA'
p3251
g2
tp3252
a(S'PCT_GRAD_PROF'
p3253
g2
tp3254
a(S'PCT_BORN_US'
p3255
g2
tp3256
a(S'MEDIAN_HH_INC'
p3257
g2
tp3258
a(S'POVERTY_RATE'
p3259
g2
tp3260
a(S'UNEMP_RATE'
p3261
g2
tp3262
a(S'LN_MEDIAN_HH_INC'
p3263
g2
tp3264
a(S'FSEND_COUNT'
p3265
g2
tp3266
a(S'FSEND_1'
p3267
g2
tp3268
a(S'FSEND_2'
p3269
g2
tp3270
a(S'FSEND_3'
p3271
g2
tp3272
a(S'FSEND_4'
p3273
g2
tp3274
a(S'FSEND_5'
p3275
g2
tp3276
a(S'COUNT_NWNE_P10'
p3277
g2
tp3278
a(S'COUNT_WNE_P10'
p3279
g2
tp3280
a(S'MN_EARN_WNE_P10'
p3281
g2
tp3282
a(S'MD_EARN_WNE_P10'
p3283
g2
tp3284
a(S'PCT10_EARN_WNE_P10'
p3285
g2
tp3286
a(S'PCT25_EARN_WNE_P10'
p3287
g2
tp3288
a(S'PCT75_EARN_WNE_P10'
p3289
g2
tp3290
a(S'PCT90_EARN_WNE_P10'
p3291
g2
tp3292
a(S'SD_EARN_WNE_P10'
p3293
g2
tp3294
a(S'COUNT_WNE_INC1_P10'
p3295
g2
tp3296
a(S'COUNT_WNE_INC2_P10'
p3297
g2
tp3298
a(S'COUNT_WNE_INC3_P10'
p3299
g2
tp3300
a(S'COUNT_WNE_INDEP0_INC1_P10'
p3301
g2
tp3302
a(S'COUNT_WNE_INDEP0_P10'
p3303
g2
tp3304
a(S'COUNT_WNE_INDEP1_P10'
p3305
g2
tp3306
a(S'COUNT_WNE_MALE0_P10'
p3307
g2
tp3308
a(S'COUNT_WNE_MALE1_P10'
p3309
g2
tp3310
a(S'GT_25K_P10'
p3311
g2
tp3312
a(S'MN_EARN_WNE_INC1_P10'
p3313
g2
tp3314
a(S'MN_EARN_WNE_INC2_P10'
p3315
g2
tp3316
a(S'MN_EARN_WNE_INC3_P10'
p3317
g2
tp3318
a(S'MN_EARN_WNE_INDEP0_INC1_P10'
p3319
g2
tp3320
a(S'MN_EARN_WNE_INDEP0_P10'
p3321
g2
tp3322
a(S'MN_EARN_WNE_INDEP1_P10'
p3323
g2
tp3324
a(S'MN_EARN_WNE_MALE0_P10'
p3325
g2
tp3326
a(S'MN_EARN_WNE_MALE1_P10'
p3327
g2
tp3328
a(S'COUNT_NWNE_P6'
p3329
g2
tp3330
a(S'COUNT_WNE_P6'
p3331
g2
tp3332
a(S'MN_EARN_WNE_P6'
p3333
g23
tp3334
a(S'MD_EARN_WNE_P6'
p3335
g23
tp3336
a(S'PCT10_EARN_WNE_P6'
p3337
g2
tp3338
a(S'PCT25_EARN_WNE_P6'
p3339
g2
tp3340
a(S'PCT75_EARN_WNE_P6'
p3341
g2
tp3342
a(S'PCT90_EARN_WNE_P6'
p3343
g2
tp3344
a(S'SD_EARN_WNE_P6'
p3345
g77
tp3346
a(S'COUNT_WNE_INC1_P6'
p3347
g2
tp3348
a(S'COUNT_WNE_INC2_P6'
p3349
g2
tp3350
a(S'COUNT_WNE_INC3_P6'
p3351
g2
tp3352
a(S'COUNT_WNE_INDEP0_INC1_P6'
p3353
g2
tp3354
a(S'COUNT_WNE_INDEP0_P6'
p3355
g2
tp3356
a(S'COUNT_WNE_INDEP1_P6'
p3357
g2
tp3358
a(S'COUNT_WNE_MALE0_P6'
p3359
g2
tp3360
a(S'COUNT_WNE_MALE1_P6'
p3361
g2
tp3362
a(S'GT_25K_P6'
p3363
g2
tp3364
a(S'MN_EARN_WNE_INC1_P6'
p3365
g2
tp3366
a(S'MN_EARN_WNE_INC2_P6'
p3367
g2
tp3368
a(S'MN_EARN_WNE_INC3_P6'
p3369
g2
tp3370
a(S'MN_EARN_WNE_INDEP0_INC1_P6'
p3371
g2
tp3372
a(S'MN_EARN_WNE_INDEP0_P6'
p3373
g2
tp3374
a(S'MN_EARN_WNE_INDEP1_P6'
p3375
g2
tp3376
a(S'MN_EARN_WNE_MALE0_P6'
p3377
g2
tp3378
a(S'MN_EARN_WNE_MALE1_P6'
p3379
g2
tp3380
a(S'COUNT_NWNE_P7'
p3381
g2
tp3382
a(S'COUNT_WNE_P7'
p3383
g2
tp3384
a(S'MN_EARN_WNE_P7'
p3385
g2
tp3386
a(S'SD_EARN_WNE_P7'
p3387
g2
tp3388
a(S'GT_25K_P7'
p3389
g2
tp3390
a(S'COUNT_NWNE_P8'
p3391
g2
tp3392
a(S'COUNT_WNE_P8'
p3393
g2
tp3394
a(S'MN_EARN_WNE_P8'
p3395
g2
tp3396
a(S'MD_EARN_WNE_P8'
p3397
g2
tp3398
a(S'PCT10_EARN_WNE_P8'
p3399
g2
tp3400
a(S'PCT25_EARN_WNE_P8'
p3401
g2
tp3402
a(S'PCT75_EARN_WNE_P8'
p3403
g2
tp3404
a(S'PCT90_EARN_WNE_P8'
p3405
g2
tp3406
a(S'SD_EARN_WNE_P8'
p3407
g2
tp3408
a(S'GT_25K_P8'
p3409
g2
tp3410
a(S'COUNT_NWNE_P9'
p3411
g2
tp3412
a(S'COUNT_WNE_P9'
p3413
g2
tp3414
a(S'MN_EARN_WNE_P9'
p3415
g2
tp3416
a(S'SD_EARN_WNE_P9'
p3417
g2
tp3418
a(S'GT_25K_P9'
p3419
g2
tp3420
a(S'DEBT_MDN_SUPP'
p3421
g77
tp3422
a(S'GRAD_DEBT_MDN_SUPP'
p3423
g2
tp3424
a(S'GRAD_DEBT_MDN10YR_SUPP'
p3425
g2
tp3426
a(S'RPY_3YR_RT_SUPP'
p3427
g2
tp3428
a(S'LO_INC_RPY_3YR_RT_SUPP'
p3429
g2
tp3430
a(S'MD_INC_RPY_3YR_RT_SUPP'
p3431
g2
tp3432
a(S'HI_INC_RPY_3YR_RT_SUPP'
p3433
g2
tp3434
a(S'COMPL_RPY_3YR_RT_SUPP'
p3435
g2
tp3436
a(S'NONCOM_RPY_3YR_RT_SUPP'
p3437
g2
tp3438
a(S'DEP_RPY_3YR_RT_SUPP'
p3439
g2
tp3440
a(S'IND_RPY_3YR_RT_SUPP'
p3441
g2
tp3442
a(S'PELL_RPY_3YR_RT_SUPP'
p3443
g2
tp3444
a(S'NOPELL_RPY_3YR_RT_SUPP'
p3445
g2
tp3446
a(S'FEMALE_RPY_3YR_RT_SUPP'
p3447
g2
tp3448
a(S'MALE_RPY_3YR_RT_SUPP'
p3449
g2
tp3450
a(S'FIRSTGEN_RPY_3YR_RT_SUPP'
p3451
g2
tp3452
a(S'NOTFIRSTGEN_RPY_3YR_RT_SUPP'
p3453
g2
tp3454
a(S'C150_L4_POOLED_SUPP'
p3455
g77
tp3456
a(S'C150_4_POOLED_SUPP'
p3457
g77
tp3458
a(S'C200_L4_POOLED_SUPP'
p3459
g77
tp3460
a(S'C200_4_POOLED_SUPP'
p3461
g77
tp3462
a(S'ALIAS'
p3463
g2
tp3464
a(S'C100_4'
p3465
g77
tp3466
a(S'D100_4'
p3467
g2
tp3468
a(S'C100_L4'
p3469
g77
tp3470
a(S'D100_L4'
p3471
g2
tp3472
a(S'TRANS_4'
p3473
g2
tp3474
a(S'DTRANS_4'
p3475
g2
tp3476
a(S'TRANS_L4'
p3477
g2
tp3478
a(S'DTRANS_L4'
p3479
g2
tp3480
a(S'ICLEVEL'
p3481
g23
tp3482
a(S'UGDS_MEN'
p3483
g77
tp3484
a(S'UGDS_WOMEN'
p3485
g77
tp3486
a(S'CDR3_DENOM'
p3487
g2
tp3488
a(S'CDR2_DENOM'
p3489
g2
tp3490
a.