(lp0
(S'UNITID'
p1
c__builtin__
str
p2
tp3
a(S'OPEID'
p4
g2
tp5
a(S'OPEID6'
p6
g2
tp7
a(S'INSTNM'
p8
g2
tp9
a(S'CITY'
p10
g2
tp11
a(S'STABBR'
p12
g2
tp13
a(S'ZIP'
p14
g2
tp15
a(S'ACCREDAGENCY'
p16
g2
tp17
a(S'INSTURL'
p18
g2
tp19
a(S'NPCURL'
p20
g2
tp21
a(S'SCH_DEG'
p22
g2
tp23
a(S'HCM2'
p24
g2
tp25
a(S'MAIN'
p26
g2
tp27
a(S'NUMBRANCH'
p28
g2
tp29
a(S'PREDDEG'
p30
g2
tp31
a(S'HIGHDEG'
p32
g2
tp33
a(S'CONTROL'
p34
g2
tp35
a(S'ST_FIPS'
p36
g2
tp37
a(S'REGION'
p38
g2
tp39
a(S'LOCALE'
p40
g2
tp41
a(S'LOCALE2'
p42
g2
tp43
a(S'LATITUDE'
p44
g2
tp45
a(S'LONGITUDE'
p46
g2
tp47
a(S'CCBASIC'
p48
g2
tp49
a(S'CCUGPROF'
p50
g2
tp51
a(S'CCSIZSET'
p52
g2
tp53
a(S'HBCU'
p54
g2
tp55
a(S'PBI'
p56
g2
tp57
a(S'ANNHI'
p58
g2
tp59
a(S'TRIBAL'
p60
g2
tp61
a(S'AANAPII'
p62
g2
tp63
a(S'HSI'
p64
g2
tp65
a(S'NANTI'
p66
g2
tp67
a(S'MENONLY'
p68
g2
tp69
a(S'WOMENONLY'
p70
g2
tp71
a(S'RELAFFIL'
p72
g2
tp73
a(S'ADM_RATE'
p74
g2
tp75
a(S'ADM_RATE_ALL'
p76
g2
tp77
a(S'SATVR25'
p78
c__builtin__
float
p79
tp80
a(S'SATVR75'
p81
g79
tp82
a(S'SATMT25'
p83
g79
tp84
a(S'SATMT75'
p85
g79
tp86
a(S'SATWR25'
p87
g79
tp88
a(S'SATWR75'
p89
g79
tp90
a(S'SATVRMID'
p91
g79
tp92
a(S'SATMTMID'
p93
g79
tp94
a(S'SATWRMID'
p95
g79
tp96
a(S'ACTCM25'
p97
g79
tp98
a(S'ACTCM75'
p99
g79
tp100
a(S'ACTEN25'
p101
g79
tp102
a(S'ACTEN75'
p103
g79
tp104
a(S'ACTMT25'
p105
g79
tp106
a(S'ACTMT75'
p107
g79
tp108
a(S'ACTWR25'
p109
g79
tp110
a(S'ACTWR75'
p111
g79
tp112
a(S'ACTCMMID'
p113
g79
tp114
a(S'ACTENMID'
p115
g79
tp116
a(S'ACTMTMID'
p117
g79
tp118
a(S'ACTWRMID'
p119
g79
tp120
a(S'SAT_AVG'
p121
g79
tp122
a(S'SAT_AVG_ALL'
p123
g79
tp124
a(S'PCIP01'
p125
g79
tp126
a(S'PCIP03'
p127
g79
tp128
a(S'PCIP04'
p129
g79
tp130
a(S'PCIP05'
p131
g79
tp132
a(S'PCIP09'
p133
g79
tp134
a(S'PCIP10'
p135
g79
tp136
a(S'PCIP11'
p137
g79
tp138
a(S'PCIP12'
p139
g79
tp140
a(S'PCIP13'
p141
g79
tp142
a(S'PCIP14'
p143
g79
tp144
a(S'PCIP15'
p145
g79
tp146
a(S'PCIP16'
p147
g79
tp148
a(S'PCIP19'
p149
g79
tp150
a(S'PCIP22'
p151
g79
tp152
a(S'PCIP23'
p153
g79
tp154
a(S'PCIP24'
p155
g79
tp156
a(S'PCIP25'
p157
g79
tp158
a(S'PCIP26'
p159
g79
tp160
a(S'PCIP27'
p161
g79
tp162
a(S'PCIP29'
p163
g79
tp164
a(S'PCIP30'
p165
g79
tp166
a(S'PCIP31'
p167
g79
tp168
a(S'PCIP38'
p169
g79
tp170
a(S'PCIP39'
p171
g79
tp172
a(S'PCIP40'
p173
g79
tp174
a(S'PCIP41'
p175
g79
tp176
a(S'PCIP42'
p177
g79
tp178
a(S'PCIP43'
p179
g79
tp180
a(S'PCIP44'
p181
g79
tp182
a(S'PCIP45'
p183
g79
tp184
a(S'PCIP46'
p185
g79
tp186
a(S'PCIP47'
p187
g79
tp188
a(S'PCIP48'
p189
g79
tp190
a(S'PCIP49'
p191
g79
tp192
a(S'PCIP50'
p193
g79
tp194
a(S'PCIP51'
p195
g79
tp196
a(S'PCIP52'
p197
g79
tp198
a(S'PCIP54'
p199
g79
tp200
a(S'CIP01CERT1'
p201
c__builtin__
int
p202
tp203
a(S'CIP01CERT2'
p204
g202
tp205
a(S'CIP01ASSOC'
p206
g202
tp207
a(S'CIP01CERT4'
p208
g202
tp209
a(S'CIP01BACHL'
p210
g202
tp211
a(S'CIP03CERT1'
p212
g202
tp213
a(S'CIP03CERT2'
p214
g202
tp215
a(S'CIP03ASSOC'
p216
g202
tp217
a(S'CIP03CERT4'
p218
g202
tp219
a(S'CIP03BACHL'
p220
g202
tp221
a(S'CIP04CERT1'
p222
g202
tp223
a(S'CIP04CERT2'
p224
g202
tp225
a(S'CIP04ASSOC'
p226
g202
tp227
a(S'CIP04CERT4'
p228
g202
tp229
a(S'CIP04BACHL'
p230
g202
tp231
a(S'CIP05CERT1'
p232
g202
tp233
a(S'CIP05CERT2'
p234
g202
tp235
a(S'CIP05ASSOC'
p236
g202
tp237
a(S'CIP05CERT4'
p238
g202
tp239
a(S'CIP05BACHL'
p240
g202
tp241
a(S'CIP09CERT1'
p242
g202
tp243
a(S'CIP09CERT2'
p244
g202
tp245
a(S'CIP09ASSOC'
p246
g202
tp247
a(S'CIP09CERT4'
p248
g202
tp249
a(S'CIP09BACHL'
p250
g202
tp251
a(S'CIP10CERT1'
p252
g202
tp253
a(S'CIP10CERT2'
p254
g202
tp255
a(S'CIP10ASSOC'
p256
g202
tp257
a(S'CIP10CERT4'
p258
g202
tp259
a(S'CIP10BACHL'
p260
g202
tp261
a(S'CIP11CERT1'
p262
g202
tp263
a(S'CIP11CERT2'
p264
g202
tp265
a(S'CIP11ASSOC'
p266
g202
tp267
a(S'CIP11CERT4'
p268
g202
tp269
a(S'CIP11BACHL'
p270
g202
tp271
a(S'CIP12CERT1'
p272
g202
tp273
a(S'CIP12CERT2'
p274
g202
tp275
a(S'CIP12ASSOC'
p276
g202
tp277
a(S'CIP12CERT4'
p278
g202
tp279
a(S'CIP12BACHL'
p280
g202
tp281
a(S'CIP13CERT1'
p282
g202
tp283
a(S'CIP13CERT2'
p284
g202
tp285
a(S'CIP13ASSOC'
p286
g202
tp287
a(S'CIP13CERT4'
p288
g202
tp289
a(S'CIP13BACHL'
p290
g202
tp291
a(S'CIP14CERT1'
p292
g202
tp293
a(S'CIP14CERT2'
p294
g202
tp295
a(S'CIP14ASSOC'
p296
g202
tp297
a(S'CIP14CERT4'
p298
g202
tp299
a(S'CIP14BACHL'
p300
g202
tp301
a(S'CIP15CERT1'
p302
g202
tp303
a(S'CIP15CERT2'
p304
g202
tp305
a(S'CIP15ASSOC'
p306
g202
tp307
a(S'CIP15CERT4'
p308
g202
tp309
a(S'CIP15BACHL'
p310
g202
tp311
a(S'CIP16CERT1'
p312
g202
tp313
a(S'CIP16CERT2'
p314
g202
tp315
a(S'CIP16ASSOC'
p316
g202
tp317
a(S'CIP16CERT4'
p318
g202
tp319
a(S'CIP16BACHL'
p320
g202
tp321
a(S'CIP19CERT1'
p322
g202
tp323
a(S'CIP19CERT2'
p324
g202
tp325
a(S'CIP19ASSOC'
p326
g202
tp327
a(S'CIP19CERT4'
p328
g202
tp329
a(S'CIP19BACHL'
p330
g202
tp331
a(S'CIP22CERT1'
p332
g202
tp333
a(S'CIP22CERT2'
p334
g202
tp335
a(S'CIP22ASSOC'
p336
g202
tp337
a(S'CIP22CERT4'
p338
g202
tp339
a(S'CIP22BACHL'
p340
g202
tp341
a(S'CIP23CERT1'
p342
g202
tp343
a(S'CIP23CERT2'
p344
g202
tp345
a(S'CIP23ASSOC'
p346
g202
tp347
a(S'CIP23CERT4'
p348
g202
tp349
a(S'CIP23BACHL'
p350
g202
tp351
a(S'CIP24CERT1'
p352
g202
tp353
a(S'CIP24CERT2'
p354
g202
tp355
a(S'CIP24ASSOC'
p356
g202
tp357
a(S'CIP24CERT4'
p358
g202
tp359
a(S'CIP24BACHL'
p360
g202
tp361
a(S'CIP25CERT1'
p362
g202
tp363
a(S'CIP25CERT2'
p364
g202
tp365
a(S'CIP25ASSOC'
p366
g202
tp367
a(S'CIP25CERT4'
p368
g202
tp369
a(S'CIP25BACHL'
p370
g202
tp371
a(S'CIP26CERT1'
p372
g202
tp373
a(S'CIP26CERT2'
p374
g202
tp375
a(S'CIP26ASSOC'
p376
g202
tp377
a(S'CIP26CERT4'
p378
g202
tp379
a(S'CIP26BACHL'
p380
g202
tp381
a(S'CIP27CERT1'
p382
g202
tp383
a(S'CIP27CERT2'
p384
g202
tp385
a(S'CIP27ASSOC'
p386
g202
tp387
a(S'CIP27CERT4'
p388
g202
tp389
a(S'CIP27BACHL'
p390
g202
tp391
a(S'CIP29CERT1'
p392
g202
tp393
a(S'CIP29CERT2'
p394
g202
tp395
a(S'CIP29ASSOC'
p396
g202
tp397
a(S'CIP29CERT4'
p398
g202
tp399
a(S'CIP29BACHL'
p400
g202
tp401
a(S'CIP30CERT1'
p402
g202
tp403
a(S'CIP30CERT2'
p404
g202
tp405
a(S'CIP30ASSOC'
p406
g202
tp407
a(S'CIP30CERT4'
p408
g202
tp409
a(S'CIP30BACHL'
p410
g202
tp411
a(S'CIP31CERT1'
p412
g202
tp413
a(S'CIP31CERT2'
p414
g202
tp415
a(S'CIP31ASSOC'
p416
g202
tp417
a(S'CIP31CERT4'
p418
g202
tp419
a(S'CIP31BACHL'
p420
g202
tp421
a(S'CIP38CERT1'
p422
g202
tp423
a(S'CIP38CERT2'
p424
g202
tp425
a(S'CIP38ASSOC'
p426
g202
tp427
a(S'CIP38CERT4'
p428
g202
tp429
a(S'CIP38BACHL'
p430
g202
tp431
a(S'CIP39CERT1'
p432
g202
tp433
a(S'CIP39CERT2'
p434
g202
tp435
a(S'CIP39ASSOC'
p436
g202
tp437
a(S'CIP39CERT4'
p438
g202
tp439
a(S'CIP39BACHL'
p440
g202
tp441
a(S'CIP40CERT1'
p442
g202
tp443
a(S'CIP40CERT2'
p444
g202
tp445
a(S'CIP40ASSOC'
p446
g202
tp447
a(S'CIP40CERT4'
p448
g202
tp449
a(S'CIP40BACHL'
p450
g202
tp451
a(S'CIP41CERT1'
p452
g202
tp453
a(S'CIP41CERT2'
p454
g202
tp455
a(S'CIP41ASSOC'
p456
g202
tp457
a(S'CIP41CERT4'
p458
g202
tp459
a(S'CIP41BACHL'
p460
g202
tp461
a(S'CIP42CERT1'
p462
g202
tp463
a(S'CIP42CERT2'
p464
g202
tp465
a(S'CIP42ASSOC'
p466
g202
tp467
a(S'CIP42CERT4'
p468
g202
tp469
a(S'CIP42BACHL'
p470
g202
tp471
a(S'CIP43CERT1'
p472
g202
tp473
a(S'CIP43CERT2'
p474
g202
tp475
a(S'CIP43ASSOC'
p476
g202
tp477
a(S'CIP43CERT4'
p478
g202
tp479
a(S'CIP43BACHL'
p480
g202
tp481
a(S'CIP44CERT1'
p482
g202
tp483
a(S'CIP44CERT2'
p484
g202
tp485
a(S'CIP44ASSOC'
p486
g202
tp487
a(S'CIP44CERT4'
p488
g202
tp489
a(S'CIP44BACHL'
p490
g202
tp491
a(S'CIP45CERT1'
p492
g202
tp493
a(S'CIP45CERT2'
p494
g202
tp495
a(S'CIP45ASSOC'
p496
g202
tp497
a(S'CIP45CERT4'
p498
g202
tp499
a(S'CIP45BACHL'
p500
g202
tp501
a(S'CIP46CERT1'
p502
g202
tp503
a(S'CIP46CERT2'
p504
g202
tp505
a(S'CIP46ASSOC'
p506
g202
tp507
a(S'CIP46CERT4'
p508
g202
tp509
a(S'CIP46BACHL'
p510
g202
tp511
a(S'CIP47CERT1'
p512
g202
tp513
a(S'CIP47CERT2'
p514
g202
tp515
a(S'CIP47ASSOC'
p516
g202
tp517
a(S'CIP47CERT4'
p518
g202
tp519
a(S'CIP47BACHL'
p520
g202
tp521
a(S'CIP48CERT1'
p522
g202
tp523
a(S'CIP48CERT2'
p524
g202
tp525
a(S'CIP48ASSOC'
p526
g202
tp527
a(S'CIP48CERT4'
p528
g202
tp529
a(S'CIP48BACHL'
p530
g202
tp531
a(S'CIP49CERT1'
p532
g202
tp533
a(S'CIP49CERT2'
p534
g202
tp535
a(S'CIP49ASSOC'
p536
g202
tp537
a(S'CIP49CERT4'
p538
g202
tp539
a(S'CIP49BACHL'
p540
g202
tp541
a(S'CIP50CERT1'
p542
g202
tp543
a(S'CIP50CERT2'
p544
g202
tp545
a(S'CIP50ASSOC'
p546
g202
tp547
a(S'CIP50CERT4'
p548
g202
tp549
a(S'CIP50BACHL'
p550
g202
tp551
a(S'CIP51CERT1'
p552
g202
tp553
a(S'CIP51CERT2'
p554
g202
tp555
a(S'CIP51ASSOC'
p556
g202
tp557
a(S'CIP51CERT4'
p558
g202
tp559
a(S'CIP51BACHL'
p560
g202
tp561
a(S'CIP52CERT1'
p562
g202
tp563
a(S'CIP52CERT2'
p564
g202
tp565
a(S'CIP52ASSOC'
p566
g202
tp567
a(S'CIP52CERT4'
p568
g202
tp569
a(S'CIP52BACHL'
p570
g202
tp571
a(S'CIP54CERT1'
p572
g202
tp573
a(S'CIP54CERT2'
p574
g202
tp575
a(S'CIP54ASSOC'
p576
g202
tp577
a(S'CIP54CERT4'
p578
g202
tp579
a(S'CIP54BACHL'
p580
g202
tp581
a(S'DISTANCEONLY'
p582
g2
tp583
a(S'UGDS'
p584
g2
tp585
a(S'UG'
p586
g2
tp587
a(S'UGDS_WHITE'
p588
g79
tp589
a(S'UGDS_BLACK'
p590
g79
tp591
a(S'UGDS_HISP'
p592
g79
tp593
a(S'UGDS_ASIAN'
p594
g79
tp595
a(S'UGDS_AIAN'
p596
g79
tp597
a(S'UGDS_NHPI'
p598
g79
tp599
a(S'UGDS_2MOR'
p600
g79
tp601
a(S'UGDS_NRA'
p602
g79
tp603
a(S'UGDS_UNKN'
p604
g79
tp605
a(S'UGDS_WHITENH'
p606
g79
tp607
a(S'UGDS_BLACKNH'
p608
g79
tp609
a(S'UGDS_API'
p610
g79
tp611
a(S'UGDS_AIANOLD'
p612
g79
tp613
a(S'UGDS_HISPOLD'
p614
g79
tp615
a(S'UG_NRA'
p616
g2
tp617
a(S'UG_UNKN'
p618
g2
tp619
a(S'UG_WHITENH'
p620
g2
tp621
a(S'UG_BLACKNH'
p622
g2
tp623
a(S'UG_API'
p624
g2
tp625
a(S'UG_AIANOLD'
p626
g2
tp627
a(S'UG_HISPOLD'
p628
g2
tp629
a(S'PPTUG_EF'
p630
g2
tp631
a(S'PPTUG_EF2'
p632
g2
tp633
a(S'CURROPER'
p634
g2
tp635
a(S'NPT4_PUB'
p636
g202
tp637
a(S'NPT4_PRIV'
p638
g202
tp639
a(S'NPT4_PROG'
p640
g202
tp641
a(S'NPT4_OTHER'
p642
g202
tp643
a(S'NPT41_PUB'
p644
g202
tp645
a(S'NPT42_PUB'
p646
g202
tp647
a(S'NPT43_PUB'
p648
g202
tp649
a(S'NPT44_PUB'
p650
g202
tp651
a(S'NPT45_PUB'
p652
g202
tp653
a(S'NPT41_PRIV'
p654
g202
tp655
a(S'NPT42_PRIV'
p656
g202
tp657
a(S'NPT43_PRIV'
p658
g202
tp659
a(S'NPT44_PRIV'
p660
g202
tp661
a(S'NPT45_PRIV'
p662
g202
tp663
a(S'NPT41_PROG'
p664
g202
tp665
a(S'NPT42_PROG'
p666
g202
tp667
a(S'NPT43_PROG'
p668
g202
tp669
a(S'NPT44_PROG'
p670
g202
tp671
a(S'NPT45_PROG'
p672
g202
tp673
a(S'NPT41_OTHER'
p674
g202
tp675
a(S'NPT42_OTHER'
p676
g202
tp677
a(S'NPT43_OTHER'
p678
g202
tp679
a(S'NPT44_OTHER'
p680
g202
tp681
a(S'NPT45_OTHER'
p682
g202
tp683
a(S'NPT4_048_PUB'
p684
g202
tp685
a(S'NPT4_048_PRIV'
p686
g202
tp687
a(S'NPT4_048_PROG'
p688
g202
tp689
a(S'NPT4_048_OTHER'
p690
g202
tp691
a(S'NPT4_3075_PUB'
p692
g202
tp693
a(S'NPT4_3075_PRIV'
p694
g202
tp695
a(S'NPT4_75UP_PUB'
p696
g202
tp697
a(S'NPT4_75UP_PRIV'
p698
g202
tp699
a(S'NPT4_3075_PROG'
p700
g202
tp701
a(S'NPT4_3075_OTHER'
p702
g202
tp703
a(S'NPT4_75UP_PROG'
p704
g202
tp705
a(S'NPT4_75UP_OTHER'
p706
g202
tp707
a(S'NUM4_PUB'
p708
g2
tp709
a(S'NUM4_PRIV'
p710
g2
tp711
a(S'NUM4_PROG'
p712
g2
tp713
a(S'NUM4_OTHER'
p714
g2
tp715
a(S'NUM41_PUB'
p716
g2
tp717
a(S'NUM42_PUB'
p718
g2
tp719
a(S'NUM43_PUB'
p720
g2
tp721
a(S'NUM44_PUB'
p722
g2
tp723
a(S'NUM45_PUB'
p724
g2
tp725
a(S'NUM41_PRIV'
p726
g2
tp727
a(S'NUM42_PRIV'
p728
g2
tp729
a(S'NUM43_PRIV'
p730
g2
tp731
a(S'NUM44_PRIV'
p732
g2
tp733
a(S'NUM45_PRIV'
p734
g2
tp735
a(S'NUM41_PROG'
p736
g2
tp737
a(S'NUM42_PROG'
p738
g2
tp739
a(S'NUM43_PROG'
p740
g2
tp741
a(S'NUM44_PROG'
p742
g2
tp743
a(S'NUM45_PROG'
p744
g2
tp745
a(S'NUM41_OTHER'
p746
g2
tp747
a(S'NUM42_OTHER'
p748
g2
tp749
a(S'NUM43_OTHER'
p750
g2
tp751
a(S'NUM44_OTHER'
p752
g2
tp753
a(S'NUM45_OTHER'
p754
g2
tp755
a(S'COSTT4_A'
p756
g202
tp757
a(S'COSTT4_P'
p758
g202
tp759
a(S'TUITIONFEE_IN'
p760
g202
tp761
a(S'TUITIONFEE_OUT'
p762
g202
tp763
a(S'TUITIONFEE_PROG'
p764
g202
tp765
a(S'TUITFTE'
p766
g2
tp767
a(S'INEXPFTE'
p768
g2
tp769
a(S'AVGFACSAL'
p770
g2
tp771
a(S'PFTFAC'
p772
g2
tp773
a(S'PCTPELL'
p774
g2
tp775
a(S'C150_4'
p776
g79
tp777
a(S'C150_L4'
p778
g79
tp779
a(S'C150_4_POOLED'
p780
g79
tp781
a(S'C150_L4_POOLED'
p782
g79
tp783
a(S'POOLYRS'
p784
g2
tp785
a(S'PFTFTUG1_EF'
p786
g2
tp787
a(S'D150_4'
p788
g2
tp789
a(S'D150_L4'
p790
g2
tp791
a(S'D150_4_POOLED'
p792
g2
tp793
a(S'D150_L4_POOLED'
p794
g2
tp795
a(S'C150_4_WHITE'
p796
g79
tp797
a(S'C150_4_BLACK'
p798
g79
tp799
a(S'C150_4_HISP'
p800
g79
tp801
a(S'C150_4_ASIAN'
p802
g79
tp803
a(S'C150_4_AIAN'
p804
g79
tp805
a(S'C150_4_NHPI'
p806
g79
tp807
a(S'C150_4_2MOR'
p808
g79
tp809
a(S'C150_4_NRA'
p810
g79
tp811
a(S'C150_4_UNKN'
p812
g79
tp813
a(S'C150_4_WHITENH'
p814
g79
tp815
a(S'C150_4_BLACKNH'
p816
g79
tp817
a(S'C150_4_API'
p818
g79
tp819
a(S'C150_4_AIANOLD'
p820
g79
tp821
a(S'C150_4_HISPOLD'
p822
g79
tp823
a(S'C150_L4_WHITE'
p824
g79
tp825
a(S'C150_L4_BLACK'
p826
g79
tp827
a(S'C150_L4_HISP'
p828
g79
tp829
a(S'C150_L4_ASIAN'
p830
g79
tp831
a(S'C150_L4_AIAN'
p832
g79
tp833
a(S'C150_L4_NHPI'
p834
g79
tp835
a(S'C150_L4_2MOR'
p836
g79
tp837
a(S'C150_L4_NRA'
p838
g79
tp839
a(S'C150_L4_UNKN'
p840
g79
tp841
a(S'C150_L4_WHITENH'
p842
g79
tp843
a(S'C150_L4_BLACKNH'
p844
g79
tp845
a(S'C150_L4_API'
p846
g79
tp847
a(S'C150_L4_AIANOLD'
p848
g79
tp849
a(S'C150_L4_HISPOLD'
p850
g79
tp851
a(S'C200_4'
p852
g79
tp853
a(S'C200_L4'
p854
g79
tp855
a(S'D200_4'
p856
g2
tp857
a(S'D200_L4'
p858
g2
tp859
a(S'RET_FT4'
p860
g79
tp861
a(S'RET_FTL4'
p862
g79
tp863
a(S'RET_PT4'
p864
g79
tp865
a(S'RET_PTL4'
p866
g79
tp867
a(S'C200_4_POOLED'
p868
g79
tp869
a(S'C200_L4_POOLED'
p870
g79
tp871
a(S'POOLYRS200'
p872
g2
tp873
a(S'D200_4_POOLED'
p874
g2
tp875
a(S'D200_L4_POOLED'
p876
g2
tp877
a(S'PCTFLOAN'
p878
g2
tp879
a(S'UG25ABV'
p880
g79
tp881
a(S'CDR2'
p882
g2
tp883
a(S'CDR3'
p884
g2
tp885
a(S'DEATH_YR2_RT'
p886
g79
tp887
a(S'COMP_ORIG_YR2_RT'
p888
g79
tp889
a(S'COMP_4YR_TRANS_YR2_RT'
p890
g79
tp891
a(S'COMP_2YR_TRANS_YR2_RT'
p892
g79
tp893
a(S'WDRAW_ORIG_YR2_RT'
p894
g79
tp895
a(S'WDRAW_4YR_TRANS_YR2_RT'
p896
g79
tp897
a(S'WDRAW_2YR_TRANS_YR2_RT'
p898
g79
tp899
a(S'ENRL_ORIG_YR2_RT'
p900
g79
tp901
a(S'ENRL_4YR_TRANS_YR2_RT'
p902
g79
tp903
a(S'ENRL_2YR_TRANS_YR2_RT'
p904
g79
tp905
a(S'UNKN_ORIG_YR2_RT'
p906
g79
tp907
a(S'UNKN_4YR_TRANS_YR2_RT'
p908
g79
tp909
a(S'UNKN_2YR_TRANS_YR2_RT'
p910
g79
tp911
a(S'LO_INC_DEATH_YR2_RT'
p912
g79
tp913
a(S'LO_INC_COMP_ORIG_YR2_RT'
p914
g79
tp915
a(S'LO_INC_COMP_4YR_TRANS_YR2_RT'
p916
g79
tp917
a(S'LO_INC_COMP_2YR_TRANS_YR2_RT'
p918
g79
tp919
a(S'LO_INC_WDRAW_ORIG_YR2_RT'
p920
g79
tp921
a(S'LO_INC_WDRAW_4YR_TRANS_YR2_RT'
p922
g79
tp923
a(S'LO_INC_WDRAW_2YR_TRANS_YR2_RT'
p924
g79
tp925
a(S'LO_INC_ENRL_ORIG_YR2_RT'
p926
g79
tp927
a(S'LO_INC_ENRL_4YR_TRANS_YR2_RT'
p928
g79
tp929
a(S'LO_INC_ENRL_2YR_TRANS_YR2_RT'
p930
g79
tp931
a(S'LO_INC_UNKN_ORIG_YR2_RT'
p932
g79
tp933
a(S'LO_INC_UNKN_4YR_TRANS_YR2_RT'
p934
g79
tp935
a(S'LO_INC_UNKN_2YR_TRANS_YR2_RT'
p936
g79
tp937
a(S'MD_INC_DEATH_YR2_RT'
p938
g79
tp939
a(S'MD_INC_COMP_ORIG_YR2_RT'
p940
g79
tp941
a(S'MD_INC_COMP_4YR_TRANS_YR2_RT'
p942
g79
tp943
a(S'MD_INC_COMP_2YR_TRANS_YR2_RT'
p944
g79
tp945
a(S'MD_INC_WDRAW_ORIG_YR2_RT'
p946
g79
tp947
a(S'MD_INC_WDRAW_4YR_TRANS_YR2_RT'
p948
g79
tp949
a(S'MD_INC_WDRAW_2YR_TRANS_YR2_RT'
p950
g79
tp951
a(S'MD_INC_ENRL_ORIG_YR2_RT'
p952
g79
tp953
a(S'MD_INC_ENRL_4YR_TRANS_YR2_RT'
p954
g79
tp955
a(S'MD_INC_ENRL_2YR_TRANS_YR2_RT'
p956
g79
tp957
a(S'MD_INC_UNKN_ORIG_YR2_RT'
p958
g79
tp959
a(S'MD_INC_UNKN_4YR_TRANS_YR2_RT'
p960
g79
tp961
a(S'MD_INC_UNKN_2YR_TRANS_YR2_RT'
p962
g79
tp963
a(S'HI_INC_DEATH_YR2_RT'
p964
g79
tp965
a(S'HI_INC_COMP_ORIG_YR2_RT'
p966
g79
tp967
a(S'HI_INC_COMP_4YR_TRANS_YR2_RT'
p968
g79
tp969
a(S'HI_INC_COMP_2YR_TRANS_YR2_RT'
p970
g79
tp971
a(S'HI_INC_WDRAW_ORIG_YR2_RT'
p972
g79
tp973
a(S'HI_INC_WDRAW_4YR_TRANS_YR2_RT'
p974
g79
tp975
a(S'HI_INC_WDRAW_2YR_TRANS_YR2_RT'
p976
g79
tp977
a(S'HI_INC_ENRL_ORIG_YR2_RT'
p978
g79
tp979
a(S'HI_INC_ENRL_4YR_TRANS_YR2_RT'
p980
g79
tp981
a(S'HI_INC_ENRL_2YR_TRANS_YR2_RT'
p982
g79
tp983
a(S'HI_INC_UNKN_ORIG_YR2_RT'
p984
g79
tp985
a(S'HI_INC_UNKN_4YR_TRANS_YR2_RT'
p986
g79
tp987
a(S'HI_INC_UNKN_2YR_TRANS_YR2_RT'
p988
g79
tp989
a(S'DEP_DEATH_YR2_RT'
p990
g79
tp991
a(S'DEP_COMP_ORIG_YR2_RT'
p992
g79
tp993
a(S'DEP_COMP_4YR_TRANS_YR2_RT'
p994
g79
tp995
a(S'DEP_COMP_2YR_TRANS_YR2_RT'
p996
g79
tp997
a(S'DEP_WDRAW_ORIG_YR2_RT'
p998
g79
tp999
a(S'DEP_WDRAW_4YR_TRANS_YR2_RT'
p1000
g79
tp1001
a(S'DEP_WDRAW_2YR_TRANS_YR2_RT'
p1002
g79
tp1003
a(S'DEP_ENRL_ORIG_YR2_RT'
p1004
g79
tp1005
a(S'DEP_ENRL_4YR_TRANS_YR2_RT'
p1006
g79
tp1007
a(S'DEP_ENRL_2YR_TRANS_YR2_RT'
p1008
g79
tp1009
a(S'DEP_UNKN_ORIG_YR2_RT'
p1010
g79
tp1011
a(S'DEP_UNKN_4YR_TRANS_YR2_RT'
p1012
g79
tp1013
a(S'DEP_UNKN_2YR_TRANS_YR2_RT'
p1014
g79
tp1015
a(S'IND_DEATH_YR2_RT'
p1016
g79
tp1017
a(S'IND_COMP_ORIG_YR2_RT'
p1018
g79
tp1019
a(S'IND_COMP_4YR_TRANS_YR2_RT'
p1020
g79
tp1021
a(S'IND_COMP_2YR_TRANS_YR2_RT'
p1022
g79
tp1023
a(S'IND_WDRAW_ORIG_YR2_RT'
p1024
g79
tp1025
a(S'IND_WDRAW_4YR_TRANS_YR2_RT'
p1026
g79
tp1027
a(S'IND_WDRAW_2YR_TRANS_YR2_RT'
p1028
g79
tp1029
a(S'IND_ENRL_ORIG_YR2_RT'
p1030
g79
tp1031
a(S'IND_ENRL_4YR_TRANS_YR2_RT'
p1032
g79
tp1033
a(S'IND_ENRL_2YR_TRANS_YR2_RT'
p1034
g79
tp1035
a(S'IND_UNKN_ORIG_YR2_RT'
p1036
g79
tp1037
a(S'IND_UNKN_4YR_TRANS_YR2_RT'
p1038
g79
tp1039
a(S'IND_UNKN_2YR_TRANS_YR2_RT'
p1040
g79
tp1041
a(S'FEMALE_DEATH_YR2_RT'
p1042
g79
tp1043
a(S'FEMALE_COMP_ORIG_YR2_RT'
p1044
g79
tp1045
a(S'FEMALE_COMP_4YR_TRANS_YR2_RT'
p1046
g79
tp1047
a(S'FEMALE_COMP_2YR_TRANS_YR2_RT'
p1048
g79
tp1049
a(S'FEMALE_WDRAW_ORIG_YR2_RT'
p1050
g79
tp1051
a(S'FEMALE_WDRAW_4YR_TRANS_YR2_RT'
p1052
g79
tp1053
a(S'FEMALE_WDRAW_2YR_TRANS_YR2_RT'
p1054
g79
tp1055
a(S'FEMALE_ENRL_ORIG_YR2_RT'
p1056
g79
tp1057
a(S'FEMALE_ENRL_4YR_TRANS_YR2_RT'
p1058
g79
tp1059
a(S'FEMALE_ENRL_2YR_TRANS_YR2_RT'
p1060
g79
tp1061
a(S'FEMALE_UNKN_ORIG_YR2_RT'
p1062
g79
tp1063
a(S'FEMALE_UNKN_4YR_TRANS_YR2_RT'
p1064
g79
tp1065
a(S'FEMALE_UNKN_2YR_TRANS_YR2_RT'
p1066
g79
tp1067
a(S'MALE_DEATH_YR2_RT'
p1068
g79
tp1069
a(S'MALE_COMP_ORIG_YR2_RT'
p1070
g79
tp1071
a(S'MALE_COMP_4YR_TRANS_YR2_RT'
p1072
g79
tp1073
a(S'MALE_COMP_2YR_TRANS_YR2_RT'
p1074
g79
tp1075
a(S'MALE_WDRAW_ORIG_YR2_RT'
p1076
g79
tp1077
a(S'MALE_WDRAW_4YR_TRANS_YR2_RT'
p1078
g79
tp1079
a(S'MALE_WDRAW_2YR_TRANS_YR2_RT'
p1080
g79
tp1081
a(S'MALE_ENRL_ORIG_YR2_RT'
p1082
g79
tp1083
a(S'MALE_ENRL_4YR_TRANS_YR2_RT'
p1084
g79
tp1085
a(S'MALE_ENRL_2YR_TRANS_YR2_RT'
p1086
g79
tp1087
a(S'MALE_UNKN_ORIG_YR2_RT'
p1088
g79
tp1089
a(S'MALE_UNKN_4YR_TRANS_YR2_RT'
p1090
g79
tp1091
a(S'MALE_UNKN_2YR_TRANS_YR2_RT'
p1092
g79
tp1093
a(S'PELL_DEATH_YR2_RT'
p1094
g79
tp1095
a(S'PELL_COMP_ORIG_YR2_RT'
p1096
g79
tp1097
a(S'PELL_COMP_4YR_TRANS_YR2_RT'
p1098
g79
tp1099
a(S'PELL_COMP_2YR_TRANS_YR2_RT'
p1100
g79
tp1101
a(S'PELL_WDRAW_ORIG_YR2_RT'
p1102
g79
tp1103
a(S'PELL_WDRAW_4YR_TRANS_YR2_RT'
p1104
g79
tp1105
a(S'PELL_WDRAW_2YR_TRANS_YR2_RT'
p1106
g79
tp1107
a(S'PELL_ENRL_ORIG_YR2_RT'
p1108
g79
tp1109
a(S'PELL_ENRL_4YR_TRANS_YR2_RT'
p1110
g79
tp1111
a(S'PELL_ENRL_2YR_TRANS_YR2_RT'
p1112
g79
tp1113
a(S'PELL_UNKN_ORIG_YR2_RT'
p1114
g79
tp1115
a(S'PELL_UNKN_4YR_TRANS_YR2_RT'
p1116
g79
tp1117
a(S'PELL_UNKN_2YR_TRANS_YR2_RT'
p1118
g79
tp1119
a(S'NOPELL_DEATH_YR2_RT'
p1120
g79
tp1121
a(S'NOPELL_COMP_ORIG_YR2_RT'
p1122
g79
tp1123
a(S'NOPELL_COMP_4YR_TRANS_YR2_RT'
p1124
g79
tp1125
a(S'NOPELL_COMP_2YR_TRANS_YR2_RT'
p1126
g79
tp1127
a(S'NOPELL_WDRAW_ORIG_YR2_RT'
p1128
g79
tp1129
a(S'NOPELL_WDRAW_4YR_TRANS_YR2_RT'
p1130
g79
tp1131
a(S'NOPELL_WDRAW_2YR_TRANS_YR2_RT'
p1132
g79
tp1133
a(S'NOPELL_ENRL_ORIG_YR2_RT'
p1134
g79
tp1135
a(S'NOPELL_ENRL_4YR_TRANS_YR2_RT'
p1136
g79
tp1137
a(S'NOPELL_ENRL_2YR_TRANS_YR2_RT'
p1138
g79
tp1139
a(S'NOPELL_UNKN_ORIG_YR2_RT'
p1140
g79
tp1141
a(S'NOPELL_UNKN_4YR_TRANS_YR2_RT'
p1142
g79
tp1143
a(S'NOPELL_UNKN_2YR_TRANS_YR2_RT'
p1144
g79
tp1145
a(S'LOAN_DEATH_YR2_RT'
p1146
g79
tp1147
a(S'LOAN_COMP_ORIG_YR2_RT'
p1148
g79
tp1149
a(S'LOAN_COMP_4YR_TRANS_YR2_RT'
p1150
g79
tp1151
a(S'LOAN_COMP_2YR_TRANS_YR2_RT'
p1152
g79
tp1153
a(S'LOAN_WDRAW_ORIG_YR2_RT'
p1154
g79
tp1155
a(S'LOAN_WDRAW_4YR_TRANS_YR2_RT'
p1156
g79
tp1157
a(S'LOAN_WDRAW_2YR_TRANS_YR2_RT'
p1158
g79
tp1159
a(S'LOAN_ENRL_ORIG_YR2_RT'
p1160
g79
tp1161
a(S'LOAN_ENRL_4YR_TRANS_YR2_RT'
p1162
g79
tp1163
a(S'LOAN_ENRL_2YR_TRANS_YR2_RT'
p1164
g79
tp1165
a(S'LOAN_UNKN_ORIG_YR2_RT'
p1166
g79
tp1167
a(S'LOAN_UNKN_4YR_TRANS_YR2_RT'
p1168
g79
tp1169
a(S'LOAN_UNKN_2YR_TRANS_YR2_RT'
p1170
g79
tp1171
a(S'NOLOAN_DEATH_YR2_RT'
p1172
g79
tp1173
a(S'NOLOAN_COMP_ORIG_YR2_RT'
p1174
g79
tp1175
a(S'NOLOAN_COMP_4YR_TRANS_YR2_RT'
p1176
g79
tp1177
a(S'NOLOAN_COMP_2YR_TRANS_YR2_RT'
p1178
g79
tp1179
a(S'NOLOAN_WDRAW_ORIG_YR2_RT'
p1180
g79
tp1181
a(S'NOLOAN_WDRAW_4YR_TRANS_YR2_RT'
p1182
g79
tp1183
a(S'NOLOAN_WDRAW_2YR_TRANS_YR2_RT'
p1184
g79
tp1185
a(S'NOLOAN_ENRL_ORIG_YR2_RT'
p1186
g79
tp1187
a(S'NOLOAN_ENRL_4YR_TRANS_YR2_RT'
p1188
g79
tp1189
a(S'NOLOAN_ENRL_2YR_TRANS_YR2_RT'
p1190
g79
tp1191
a(S'NOLOAN_UNKN_ORIG_YR2_RT'
p1192
g79
tp1193
a(S'NOLOAN_UNKN_4YR_TRANS_YR2_RT'
p1194
g79
tp1195
a(S'NOLOAN_UNKN_2YR_TRANS_YR2_RT'
p1196
g79
tp1197
a(S'FIRSTGEN_DEATH_YR2_RT'
p1198
g79
tp1199
a(S'FIRSTGEN_COMP_ORIG_YR2_RT'
p1200
g79
tp1201
a(S'FIRSTGEN_COMP_4YR_TRANS_YR2_RT'
p1202
g79
tp1203
a(S'FIRSTGEN_COMP_2YR_TRANS_YR2_RT'
p1204
g79
tp1205
a(S'FIRSTGEN_WDRAW_ORIG_YR2_RT'
p1206
g79
tp1207
a(S'FIRSTGEN_WDRAW_4YR_TRANS_YR2_RT'
p1208
g79
tp1209
a(S'FIRSTGEN_WDRAW_2YR_TRANS_YR2_RT'
p1210
g79
tp1211
a(S'FIRSTGEN_ENRL_ORIG_YR2_RT'
p1212
g79
tp1213
a(S'FIRSTGEN_ENRL_4YR_TRANS_YR2_RT'
p1214
g79
tp1215
a(S'FIRSTGEN_ENRL_2YR_TRANS_YR2_RT'
p1216
g79
tp1217
a(S'FIRSTGEN_UNKN_ORIG_YR2_RT'
p1218
g79
tp1219
a(S'FIRSTGEN_UNKN_4YR_TRANS_YR2_RT'
p1220
g79
tp1221
a(S'FIRSTGEN_UNKN_2YR_TRANS_YR2_RT'
p1222
g79
tp1223
a(S'NOT1STGEN_DEATH_YR2_RT'
p1224
g79
tp1225
a(S'NOT1STGEN_COMP_ORIG_YR2_RT'
p1226
g79
tp1227
a(S'NOT1STGEN_COMP_4YR_TRANS_YR2_RT'
p1228
g79
tp1229
a(S'NOT1STGEN_COMP_2YR_TRANS_YR2_RT'
p1230
g79
tp1231
a(S'NOT1STGEN_WDRAW_ORIG_YR2_RT'
p1232
g79
tp1233
a(S'NOT1STGEN_WDRAW_4YR_TRANS_YR2_RT'
p1234
g79
tp1235
a(S'NOT1STGEN_WDRAW_2YR_TRANS_YR2_RT'
p1236
g79
tp1237
a(S'NOT1STGEN_ENRL_ORIG_YR2_RT'
p1238
g79
tp1239
a(S'NOT1STGEN_ENRL_4YR_TRANS_YR2_RT'
p1240
g79
tp1241
a(S'NOT1STGEN_ENRL_2YR_TRANS_YR2_RT'
p1242
g79
tp1243
a(S'NOT1STGEN_UNKN_ORIG_YR2_RT'
p1244
g79
tp1245
a(S'NOT1STGEN_UNKN_4YR_TRANS_YR2_RT'
p1246
g79
tp1247
a(S'NOT1STGEN_UNKN_2YR_TRANS_YR2_RT'
p1248
g79
tp1249
a(S'DEATH_YR3_RT'
p1250
g79
tp1251
a(S'COMP_ORIG_YR3_RT'
p1252
g79
tp1253
a(S'COMP_4YR_TRANS_YR3_RT'
p1254
g79
tp1255
a(S'COMP_2YR_TRANS_YR3_RT'
p1256
g79
tp1257
a(S'WDRAW_ORIG_YR3_RT'
p1258
g79
tp1259
a(S'WDRAW_4YR_TRANS_YR3_RT'
p1260
g79
tp1261
a(S'WDRAW_2YR_TRANS_YR3_RT'
p1262
g79
tp1263
a(S'ENRL_ORIG_YR3_RT'
p1264
g79
tp1265
a(S'ENRL_4YR_TRANS_YR3_RT'
p1266
g79
tp1267
a(S'ENRL_2YR_TRANS_YR3_RT'
p1268
g79
tp1269
a(S'UNKN_ORIG_YR3_RT'
p1270
g79
tp1271
a(S'UNKN_4YR_TRANS_YR3_RT'
p1272
g79
tp1273
a(S'UNKN_2YR_TRANS_YR3_RT'
p1274
g79
tp1275
a(S'LO_INC_DEATH_YR3_RT'
p1276
g79
tp1277
a(S'LO_INC_COMP_ORIG_YR3_RT'
p1278
g79
tp1279
a(S'LO_INC_COMP_4YR_TRANS_YR3_RT'
p1280
g79
tp1281
a(S'LO_INC_COMP_2YR_TRANS_YR3_RT'
p1282
g79
tp1283
a(S'LO_INC_WDRAW_ORIG_YR3_RT'
p1284
g79
tp1285
a(S'LO_INC_WDRAW_4YR_TRANS_YR3_RT'
p1286
g79
tp1287
a(S'LO_INC_WDRAW_2YR_TRANS_YR3_RT'
p1288
g79
tp1289
a(S'LO_INC_ENRL_ORIG_YR3_RT'
p1290
g79
tp1291
a(S'LO_INC_ENRL_4YR_TRANS_YR3_RT'
p1292
g79
tp1293
a(S'LO_INC_ENRL_2YR_TRANS_YR3_RT'
p1294
g79
tp1295
a(S'LO_INC_UNKN_ORIG_YR3_RT'
p1296
g79
tp1297
a(S'LO_INC_UNKN_4YR_TRANS_YR3_RT'
p1298
g79
tp1299
a(S'LO_INC_UNKN_2YR_TRANS_YR3_RT'
p1300
g79
tp1301
a(S'MD_INC_DEATH_YR3_RT'
p1302
g79
tp1303
a(S'MD_INC_COMP_ORIG_YR3_RT'
p1304
g79
tp1305
a(S'MD_INC_COMP_4YR_TRANS_YR3_RT'
p1306
g79
tp1307
a(S'MD_INC_COMP_2YR_TRANS_YR3_RT'
p1308
g79
tp1309
a(S'MD_INC_WDRAW_ORIG_YR3_RT'
p1310
g79
tp1311
a(S'MD_INC_WDRAW_4YR_TRANS_YR3_RT'
p1312
g79
tp1313
a(S'MD_INC_WDRAW_2YR_TRANS_YR3_RT'
p1314
g79
tp1315
a(S'MD_INC_ENRL_ORIG_YR3_RT'
p1316
g79
tp1317
a(S'MD_INC_ENRL_4YR_TRANS_YR3_RT'
p1318
g79
tp1319
a(S'MD_INC_ENRL_2YR_TRANS_YR3_RT'
p1320
g79
tp1321
a(S'MD_INC_UNKN_ORIG_YR3_RT'
p1322
g79
tp1323
a(S'MD_INC_UNKN_4YR_TRANS_YR3_RT'
p1324
g79
tp1325
a(S'MD_INC_UNKN_2YR_TRANS_YR3_RT'
p1326
g79
tp1327
a(S'HI_INC_DEATH_YR3_RT'
p1328
g79
tp1329
a(S'HI_INC_COMP_ORIG_YR3_RT'
p1330
g79
tp1331
a(S'HI_INC_COMP_4YR_TRANS_YR3_RT'
p1332
g79
tp1333
a(S'HI_INC_COMP_2YR_TRANS_YR3_RT'
p1334
g79
tp1335
a(S'HI_INC_WDRAW_ORIG_YR3_RT'
p1336
g79
tp1337
a(S'HI_INC_WDRAW_4YR_TRANS_YR3_RT'
p1338
g79
tp1339
a(S'HI_INC_WDRAW_2YR_TRANS_YR3_RT'
p1340
g79
tp1341
a(S'HI_INC_ENRL_ORIG_YR3_RT'
p1342
g79
tp1343
a(S'HI_INC_ENRL_4YR_TRANS_YR3_RT'
p1344
g79
tp1345
a(S'HI_INC_ENRL_2YR_TRANS_YR3_RT'
p1346
g79
tp1347
a(S'HI_INC_UNKN_ORIG_YR3_RT'
p1348
g79
tp1349
a(S'HI_INC_UNKN_4YR_TRANS_YR3_RT'
p1350
g79
tp1351
a(S'HI_INC_UNKN_2YR_TRANS_YR3_RT'
p1352
g79
tp1353
a(S'DEP_DEATH_YR3_RT'
p1354
g79
tp1355
a(S'DEP_COMP_ORIG_YR3_RT'
p1356
g79
tp1357
a(S'DEP_COMP_4YR_TRANS_YR3_RT'
p1358
g79
tp1359
a(S'DEP_COMP_2YR_TRANS_YR3_RT'
p1360
g79
tp1361
a(S'DEP_WDRAW_ORIG_YR3_RT'
p1362
g79
tp1363
a(S'DEP_WDRAW_4YR_TRANS_YR3_RT'
p1364
g79
tp1365
a(S'DEP_WDRAW_2YR_TRANS_YR3_RT'
p1366
g79
tp1367
a(S'DEP_ENRL_ORIG_YR3_RT'
p1368
g79
tp1369
a(S'DEP_ENRL_4YR_TRANS_YR3_RT'
p1370
g79
tp1371
a(S'DEP_ENRL_2YR_TRANS_YR3_RT'
p1372
g79
tp1373
a(S'DEP_UNKN_ORIG_YR3_RT'
p1374
g79
tp1375
a(S'DEP_UNKN_4YR_TRANS_YR3_RT'
p1376
g79
tp1377
a(S'DEP_UNKN_2YR_TRANS_YR3_RT'
p1378
g79
tp1379
a(S'IND_DEATH_YR3_RT'
p1380
g79
tp1381
a(S'IND_COMP_ORIG_YR3_RT'
p1382
g79
tp1383
a(S'IND_COMP_4YR_TRANS_YR3_RT'
p1384
g79
tp1385
a(S'IND_COMP_2YR_TRANS_YR3_RT'
p1386
g79
tp1387
a(S'IND_WDRAW_ORIG_YR3_RT'
p1388
g79
tp1389
a(S'IND_WDRAW_4YR_TRANS_YR3_RT'
p1390
g79
tp1391
a(S'IND_WDRAW_2YR_TRANS_YR3_RT'
p1392
g79
tp1393
a(S'IND_ENRL_ORIG_YR3_RT'
p1394
g79
tp1395
a(S'IND_ENRL_4YR_TRANS_YR3_RT'
p1396
g79
tp1397
a(S'IND_ENRL_2YR_TRANS_YR3_RT'
p1398
g79
tp1399
a(S'IND_UNKN_ORIG_YR3_RT'
p1400
g79
tp1401
a(S'IND_UNKN_4YR_TRANS_YR3_RT'
p1402
g79
tp1403
a(S'IND_UNKN_2YR_TRANS_YR3_RT'
p1404
g79
tp1405
a(S'FEMALE_DEATH_YR3_RT'
p1406
g79
tp1407
a(S'FEMALE_COMP_ORIG_YR3_RT'
p1408
g79
tp1409
a(S'FEMALE_COMP_4YR_TRANS_YR3_RT'
p1410
g79
tp1411
a(S'FEMALE_COMP_2YR_TRANS_YR3_RT'
p1412
g79
tp1413
a(S'FEMALE_WDRAW_ORIG_YR3_RT'
p1414
g79
tp1415
a(S'FEMALE_WDRAW_4YR_TRANS_YR3_RT'
p1416
g79
tp1417
a(S'FEMALE_WDRAW_2YR_TRANS_YR3_RT'
p1418
g79
tp1419
a(S'FEMALE_ENRL_ORIG_YR3_RT'
p1420
g79
tp1421
a(S'FEMALE_ENRL_4YR_TRANS_YR3_RT'
p1422
g79
tp1423
a(S'FEMALE_ENRL_2YR_TRANS_YR3_RT'
p1424
g79
tp1425
a(S'FEMALE_UNKN_ORIG_YR3_RT'
p1426
g79
tp1427
a(S'FEMALE_UNKN_4YR_TRANS_YR3_RT'
p1428
g79
tp1429
a(S'FEMALE_UNKN_2YR_TRANS_YR3_RT'
p1430
g79
tp1431
a(S'MALE_DEATH_YR3_RT'
p1432
g79
tp1433
a(S'MALE_COMP_ORIG_YR3_RT'
p1434
g79
tp1435
a(S'MALE_COMP_4YR_TRANS_YR3_RT'
p1436
g79
tp1437
a(S'MALE_COMP_2YR_TRANS_YR3_RT'
p1438
g79
tp1439
a(S'MALE_WDRAW_ORIG_YR3_RT'
p1440
g79
tp1441
a(S'MALE_WDRAW_4YR_TRANS_YR3_RT'
p1442
g79
tp1443
a(S'MALE_WDRAW_2YR_TRANS_YR3_RT'
p1444
g79
tp1445
a(S'MALE_ENRL_ORIG_YR3_RT'
p1446
g79
tp1447
a(S'MALE_ENRL_4YR_TRANS_YR3_RT'
p1448
g79
tp1449
a(S'MALE_ENRL_2YR_TRANS_YR3_RT'
p1450
g79
tp1451
a(S'MALE_UNKN_ORIG_YR3_RT'
p1452
g79
tp1453
a(S'MALE_UNKN_4YR_TRANS_YR3_RT'
p1454
g79
tp1455
a(S'MALE_UNKN_2YR_TRANS_YR3_RT'
p1456
g79
tp1457
a(S'PELL_DEATH_YR3_RT'
p1458
g79
tp1459
a(S'PELL_COMP_ORIG_YR3_RT'
p1460
g79
tp1461
a(S'PELL_COMP_4YR_TRANS_YR3_RT'
p1462
g79
tp1463
a(S'PELL_COMP_2YR_TRANS_YR3_RT'
p1464
g79
tp1465
a(S'PELL_WDRAW_ORIG_YR3_RT'
p1466
g79
tp1467
a(S'PELL_WDRAW_4YR_TRANS_YR3_RT'
p1468
g79
tp1469
a(S'PELL_WDRAW_2YR_TRANS_YR3_RT'
p1470
g79
tp1471
a(S'PELL_ENRL_ORIG_YR3_RT'
p1472
g79
tp1473
a(S'PELL_ENRL_4YR_TRANS_YR3_RT'
p1474
g79
tp1475
a(S'PELL_ENRL_2YR_TRANS_YR3_RT'
p1476
g79
tp1477
a(S'PELL_UNKN_ORIG_YR3_RT'
p1478
g79
tp1479
a(S'PELL_UNKN_4YR_TRANS_YR3_RT'
p1480
g79
tp1481
a(S'PELL_UNKN_2YR_TRANS_YR3_RT'
p1482
g79
tp1483
a(S'NOPELL_DEATH_YR3_RT'
p1484
g79
tp1485
a(S'NOPELL_COMP_ORIG_YR3_RT'
p1486
g79
tp1487
a(S'NOPELL_COMP_4YR_TRANS_YR3_RT'
p1488
g79
tp1489
a(S'NOPELL_COMP_2YR_TRANS_YR3_RT'
p1490
g79
tp1491
a(S'NOPELL_WDRAW_ORIG_YR3_RT'
p1492
g79
tp1493
a(S'NOPELL_WDRAW_4YR_TRANS_YR3_RT'
p1494
g79
tp1495
a(S'NOPELL_WDRAW_2YR_TRANS_YR3_RT'
p1496
g79
tp1497
a(S'NOPELL_ENRL_ORIG_YR3_RT'
p1498
g79
tp1499
a(S'NOPELL_ENRL_4YR_TRANS_YR3_RT'
p1500
g79
tp1501
a(S'NOPELL_ENRL_2YR_TRANS_YR3_RT'
p1502
g79
tp1503
a(S'NOPELL_UNKN_ORIG_YR3_RT'
p1504
g79
tp1505
a(S'NOPELL_UNKN_4YR_TRANS_YR3_RT'
p1506
g79
tp1507
a(S'NOPELL_UNKN_2YR_TRANS_YR3_RT'
p1508
g79
tp1509
a(S'LOAN_DEATH_YR3_RT'
p1510
g79
tp1511
a(S'LOAN_COMP_ORIG_YR3_RT'
p1512
g79
tp1513
a(S'LOAN_COMP_4YR_TRANS_YR3_RT'
p1514
g79
tp1515
a(S'LOAN_COMP_2YR_TRANS_YR3_RT'
p1516
g79
tp1517
a(S'LOAN_WDRAW_ORIG_YR3_RT'
p1518
g79
tp1519
a(S'LOAN_WDRAW_4YR_TRANS_YR3_RT'
p1520
g79
tp1521
a(S'LOAN_WDRAW_2YR_TRANS_YR3_RT'
p1522
g79
tp1523
a(S'LOAN_ENRL_ORIG_YR3_RT'
p1524
g79
tp1525
a(S'LOAN_ENRL_4YR_TRANS_YR3_RT'
p1526
g79
tp1527
a(S'LOAN_ENRL_2YR_TRANS_YR3_RT'
p1528
g79
tp1529
a(S'LOAN_UNKN_ORIG_YR3_RT'
p1530
g79
tp1531
a(S'LOAN_UNKN_4YR_TRANS_YR3_RT'
p1532
g79
tp1533
a(S'LOAN_UNKN_2YR_TRANS_YR3_RT'
p1534
g79
tp1535
a(S'NOLOAN_DEATH_YR3_RT'
p1536
g79
tp1537
a(S'NOLOAN_COMP_ORIG_YR3_RT'
p1538
g79
tp1539
a(S'NOLOAN_COMP_4YR_TRANS_YR3_RT'
p1540
g79
tp1541
a(S'NOLOAN_COMP_2YR_TRANS_YR3_RT'
p1542
g79
tp1543
a(S'NOLOAN_WDRAW_ORIG_YR3_RT'
p1544
g79
tp1545
a(S'NOLOAN_WDRAW_4YR_TRANS_YR3_RT'
p1546
g79
tp1547
a(S'NOLOAN_WDRAW_2YR_TRANS_YR3_RT'
p1548
g79
tp1549
a(S'NOLOAN_ENRL_ORIG_YR3_RT'
p1550
g79
tp1551
a(S'NOLOAN_ENRL_4YR_TRANS_YR3_RT'
p1552
g79
tp1553
a(S'NOLOAN_ENRL_2YR_TRANS_YR3_RT'
p1554
g79
tp1555
a(S'NOLOAN_UNKN_ORIG_YR3_RT'
p1556
g79
tp1557
a(S'NOLOAN_UNKN_4YR_TRANS_YR3_RT'
p1558
g79
tp1559
a(S'NOLOAN_UNKN_2YR_TRANS_YR3_RT'
p1560
g79
tp1561
a(S'FIRSTGEN_DEATH_YR3_RT'
p1562
g79
tp1563
a(S'FIRSTGEN_COMP_ORIG_YR3_RT'
p1564
g79
tp1565
a(S'FIRSTGEN_COMP_4YR_TRANS_YR3_RT'
p1566
g79
tp1567
a(S'FIRSTGEN_COMP_2YR_TRANS_YR3_RT'
p1568
g79
tp1569
a(S'FIRSTGEN_WDRAW_ORIG_YR3_RT'
p1570
g79
tp1571
a(S'FIRSTGEN_WDRAW_4YR_TRANS_YR3_RT'
p1572
g79
tp1573
a(S'FIRSTGEN_WDRAW_2YR_TRANS_YR3_RT'
p1574
g79
tp1575
a(S'FIRSTGEN_ENRL_ORIG_YR3_RT'
p1576
g79
tp1577
a(S'FIRSTGEN_ENRL_4YR_TRANS_YR3_RT'
p1578
g79
tp1579
a(S'FIRSTGEN_ENRL_2YR_TRANS_YR3_RT'
p1580
g79
tp1581
a(S'FIRSTGEN_UNKN_ORIG_YR3_RT'
p1582
g79
tp1583
a(S'FIRSTGEN_UNKN_4YR_TRANS_YR3_RT'
p1584
g79
tp1585
a(S'FIRSTGEN_UNKN_2YR_TRANS_YR3_RT'
p1586
g79
tp1587
a(S'NOT1STGEN_DEATH_YR3_RT'
p1588
g79
tp1589
a(S'NOT1STGEN_COMP_ORIG_YR3_RT'
p1590
g79
tp1591
a(S'NOT1STGEN_COMP_4YR_TRANS_YR3_RT'
p1592
g79
tp1593
a(S'NOT1STGEN_COMP_2YR_TRANS_YR3_RT'
p1594
g79
tp1595
a(S'NOT1STGEN_WDRAW_ORIG_YR3_RT'
p1596
g79
tp1597
a(S'NOT1STGEN_WDRAW_4YR_TRANS_YR3_RT'
p1598
g79
tp1599
a(S'NOT1STGEN_WDRAW_2YR_TRANS_YR3_RT'
p1600
g79
tp1601
a(S'NOT1STGEN_ENRL_ORIG_YR3_RT'
p1602
g79
tp1603
a(S'NOT1STGEN_ENRL_4YR_TRANS_YR3_RT'
p1604
g79
tp1605
a(S'NOT1STGEN_ENRL_2YR_TRANS_YR3_RT'
p1606
g79
tp1607
a(S'NOT1STGEN_UNKN_ORIG_YR3_RT'
p1608
g79
tp1609
a(S'NOT1STGEN_UNKN_4YR_TRANS_YR3_RT'
p1610
g79
tp1611
a(S'NOT1STGEN_UNKN_2YR_TRANS_YR3_RT'
p1612
g79
tp1613
a(S'DEATH_YR4_RT'
p1614
g79
tp1615
a(S'COMP_ORIG_YR4_RT'
p1616
g79
tp1617
a(S'COMP_4YR_TRANS_YR4_RT'
p1618
g79
tp1619
a(S'COMP_2YR_TRANS_YR4_RT'
p1620
g79
tp1621
a(S'WDRAW_ORIG_YR4_RT'
p1622
g79
tp1623
a(S'WDRAW_4YR_TRANS_YR4_RT'
p1624
g79
tp1625
a(S'WDRAW_2YR_TRANS_YR4_RT'
p1626
g79
tp1627
a(S'ENRL_ORIG_YR4_RT'
p1628
g79
tp1629
a(S'ENRL_4YR_TRANS_YR4_RT'
p1630
g79
tp1631
a(S'ENRL_2YR_TRANS_YR4_RT'
p1632
g79
tp1633
a(S'UNKN_ORIG_YR4_RT'
p1634
g79
tp1635
a(S'UNKN_4YR_TRANS_YR4_RT'
p1636
g79
tp1637
a(S'UNKN_2YR_TRANS_YR4_RT'
p1638
g79
tp1639
a(S'LO_INC_DEATH_YR4_RT'
p1640
g79
tp1641
a(S'LO_INC_COMP_ORIG_YR4_RT'
p1642
g79
tp1643
a(S'LO_INC_COMP_4YR_TRANS_YR4_RT'
p1644
g79
tp1645
a(S'LO_INC_COMP_2YR_TRANS_YR4_RT'
p1646
g79
tp1647
a(S'LO_INC_WDRAW_ORIG_YR4_RT'
p1648
g79
tp1649
a(S'LO_INC_WDRAW_4YR_TRANS_YR4_RT'
p1650
g79
tp1651
a(S'LO_INC_WDRAW_2YR_TRANS_YR4_RT'
p1652
g79
tp1653
a(S'LO_INC_ENRL_ORIG_YR4_RT'
p1654
g79
tp1655
a(S'LO_INC_ENRL_4YR_TRANS_YR4_RT'
p1656
g79
tp1657
a(S'LO_INC_ENRL_2YR_TRANS_YR4_RT'
p1658
g79
tp1659
a(S'LO_INC_UNKN_ORIG_YR4_RT'
p1660
g79
tp1661
a(S'LO_INC_UNKN_4YR_TRANS_YR4_RT'
p1662
g79
tp1663
a(S'LO_INC_UNKN_2YR_TRANS_YR4_RT'
p1664
g79
tp1665
a(S'MD_INC_DEATH_YR4_RT'
p1666
g79
tp1667
a(S'MD_INC_COMP_ORIG_YR4_RT'
p1668
g79
tp1669
a(S'MD_INC_COMP_4YR_TRANS_YR4_RT'
p1670
g79
tp1671
a(S'MD_INC_COMP_2YR_TRANS_YR4_RT'
p1672
g79
tp1673
a(S'MD_INC_WDRAW_ORIG_YR4_RT'
p1674
g79
tp1675
a(S'MD_INC_WDRAW_4YR_TRANS_YR4_RT'
p1676
g79
tp1677
a(S'MD_INC_WDRAW_2YR_TRANS_YR4_RT'
p1678
g79
tp1679
a(S'MD_INC_ENRL_ORIG_YR4_RT'
p1680
g79
tp1681
a(S'MD_INC_ENRL_4YR_TRANS_YR4_RT'
p1682
g79
tp1683
a(S'MD_INC_ENRL_2YR_TRANS_YR4_RT'
p1684
g79
tp1685
a(S'MD_INC_UNKN_ORIG_YR4_RT'
p1686
g79
tp1687
a(S'MD_INC_UNKN_4YR_TRANS_YR4_RT'
p1688
g79
tp1689
a(S'MD_INC_UNKN_2YR_TRANS_YR4_RT'
p1690
g79
tp1691
a(S'HI_INC_DEATH_YR4_RT'
p1692
g79
tp1693
a(S'HI_INC_COMP_ORIG_YR4_RT'
p1694
g79
tp1695
a(S'HI_INC_COMP_4YR_TRANS_YR4_RT'
p1696
g79
tp1697
a(S'HI_INC_COMP_2YR_TRANS_YR4_RT'
p1698
g79
tp1699
a(S'HI_INC_WDRAW_ORIG_YR4_RT'
p1700
g79
tp1701
a(S'HI_INC_WDRAW_4YR_TRANS_YR4_RT'
p1702
g79
tp1703
a(S'HI_INC_WDRAW_2YR_TRANS_YR4_RT'
p1704
g79
tp1705
a(S'HI_INC_ENRL_ORIG_YR4_RT'
p1706
g79
tp1707
a(S'HI_INC_ENRL_4YR_TRANS_YR4_RT'
p1708
g79
tp1709
a(S'HI_INC_ENRL_2YR_TRANS_YR4_RT'
p1710
g79
tp1711
a(S'HI_INC_UNKN_ORIG_YR4_RT'
p1712
g79
tp1713
a(S'HI_INC_UNKN_4YR_TRANS_YR4_RT'
p1714
g79
tp1715
a(S'HI_INC_UNKN_2YR_TRANS_YR4_RT'
p1716
g79
tp1717
a(S'DEP_DEATH_YR4_RT'
p1718
g79
tp1719
a(S'DEP_COMP_ORIG_YR4_RT'
p1720
g79
tp1721
a(S'DEP_COMP_4YR_TRANS_YR4_RT'
p1722
g79
tp1723
a(S'DEP_COMP_2YR_TRANS_YR4_RT'
p1724
g79
tp1725
a(S'DEP_WDRAW_ORIG_YR4_RT'
p1726
g79
tp1727
a(S'DEP_WDRAW_4YR_TRANS_YR4_RT'
p1728
g79
tp1729
a(S'DEP_WDRAW_2YR_TRANS_YR4_RT'
p1730
g79
tp1731
a(S'DEP_ENRL_ORIG_YR4_RT'
p1732
g79
tp1733
a(S'DEP_ENRL_4YR_TRANS_YR4_RT'
p1734
g79
tp1735
a(S'DEP_ENRL_2YR_TRANS_YR4_RT'
p1736
g79
tp1737
a(S'DEP_UNKN_ORIG_YR4_RT'
p1738
g79
tp1739
a(S'DEP_UNKN_4YR_TRANS_YR4_RT'
p1740
g79
tp1741
a(S'DEP_UNKN_2YR_TRANS_YR4_RT'
p1742
g79
tp1743
a(S'IND_DEATH_YR4_RT'
p1744
g79
tp1745
a(S'IND_COMP_ORIG_YR4_RT'
p1746
g79
tp1747
a(S'IND_COMP_4YR_TRANS_YR4_RT'
p1748
g79
tp1749
a(S'IND_COMP_2YR_TRANS_YR4_RT'
p1750
g79
tp1751
a(S'IND_WDRAW_ORIG_YR4_RT'
p1752
g79
tp1753
a(S'IND_WDRAW_4YR_TRANS_YR4_RT'
p1754
g79
tp1755
a(S'IND_WDRAW_2YR_TRANS_YR4_RT'
p1756
g79
tp1757
a(S'IND_ENRL_ORIG_YR4_RT'
p1758
g79
tp1759
a(S'IND_ENRL_4YR_TRANS_YR4_RT'
p1760
g79
tp1761
a(S'IND_ENRL_2YR_TRANS_YR4_RT'
p1762
g79
tp1763
a(S'IND_UNKN_ORIG_YR4_RT'
p1764
g79
tp1765
a(S'IND_UNKN_4YR_TRANS_YR4_RT'
p1766
g79
tp1767
a(S'IND_UNKN_2YR_TRANS_YR4_RT'
p1768
g79
tp1769
a(S'FEMALE_DEATH_YR4_RT'
p1770
g79
tp1771
a(S'FEMALE_COMP_ORIG_YR4_RT'
p1772
g79
tp1773
a(S'FEMALE_COMP_4YR_TRANS_YR4_RT'
p1774
g79
tp1775
a(S'FEMALE_COMP_2YR_TRANS_YR4_RT'
p1776
g79
tp1777
a(S'FEMALE_WDRAW_ORIG_YR4_RT'
p1778
g79
tp1779
a(S'FEMALE_WDRAW_4YR_TRANS_YR4_RT'
p1780
g79
tp1781
a(S'FEMALE_WDRAW_2YR_TRANS_YR4_RT'
p1782
g79
tp1783
a(S'FEMALE_ENRL_ORIG_YR4_RT'
p1784
g79
tp1785
a(S'FEMALE_ENRL_4YR_TRANS_YR4_RT'
p1786
g79
tp1787
a(S'FEMALE_ENRL_2YR_TRANS_YR4_RT'
p1788
g79
tp1789
a(S'FEMALE_UNKN_ORIG_YR4_RT'
p1790
g79
tp1791
a(S'FEMALE_UNKN_4YR_TRANS_YR4_RT'
p1792
g79
tp1793
a(S'FEMALE_UNKN_2YR_TRANS_YR4_RT'
p1794
g79
tp1795
a(S'MALE_DEATH_YR4_RT'
p1796
g79
tp1797
a(S'MALE_COMP_ORIG_YR4_RT'
p1798
g79
tp1799
a(S'MALE_COMP_4YR_TRANS_YR4_RT'
p1800
g79
tp1801
a(S'MALE_COMP_2YR_TRANS_YR4_RT'
p1802
g79
tp1803
a(S'MALE_WDRAW_ORIG_YR4_RT'
p1804
g79
tp1805
a(S'MALE_WDRAW_4YR_TRANS_YR4_RT'
p1806
g79
tp1807
a(S'MALE_WDRAW_2YR_TRANS_YR4_RT'
p1808
g79
tp1809
a(S'MALE_ENRL_ORIG_YR4_RT'
p1810
g79
tp1811
a(S'MALE_ENRL_4YR_TRANS_YR4_RT'
p1812
g79
tp1813
a(S'MALE_ENRL_2YR_TRANS_YR4_RT'
p1814
g79
tp1815
a(S'MALE_UNKN_ORIG_YR4_RT'
p1816
g79
tp1817
a(S'MALE_UNKN_4YR_TRANS_YR4_RT'
p1818
g79
tp1819
a(S'MALE_UNKN_2YR_TRANS_YR4_RT'
p1820
g79
tp1821
a(S'PELL_DEATH_YR4_RT'
p1822
g79
tp1823
a(S'PELL_COMP_ORIG_YR4_RT'
p1824
g79
tp1825
a(S'PELL_COMP_4YR_TRANS_YR4_RT'
p1826
g79
tp1827
a(S'PELL_COMP_2YR_TRANS_YR4_RT'
p1828
g79
tp1829
a(S'PELL_WDRAW_ORIG_YR4_RT'
p1830
g79
tp1831
a(S'PELL_WDRAW_4YR_TRANS_YR4_RT'
p1832
g79
tp1833
a(S'PELL_WDRAW_2YR_TRANS_YR4_RT'
p1834
g79
tp1835
a(S'PELL_ENRL_ORIG_YR4_RT'
p1836
g79
tp1837
a(S'PELL_ENRL_4YR_TRANS_YR4_RT'
p1838
g79
tp1839
a(S'PELL_ENRL_2YR_TRANS_YR4_RT'
p1840
g79
tp1841
a(S'PELL_UNKN_ORIG_YR4_RT'
p1842
g79
tp1843
a(S'PELL_UNKN_4YR_TRANS_YR4_RT'
p1844
g79
tp1845
a(S'PELL_UNKN_2YR_TRANS_YR4_RT'
p1846
g79
tp1847
a(S'NOPELL_DEATH_YR4_RT'
p1848
g79
tp1849
a(S'NOPELL_COMP_ORIG_YR4_RT'
p1850
g79
tp1851
a(S'NOPELL_COMP_4YR_TRANS_YR4_RT'
p1852
g79
tp1853
a(S'NOPELL_COMP_2YR_TRANS_YR4_RT'
p1854
g79
tp1855
a(S'NOPELL_WDRAW_ORIG_YR4_RT'
p1856
g79
tp1857
a(S'NOPELL_WDRAW_4YR_TRANS_YR4_RT'
p1858
g79
tp1859
a(S'NOPELL_WDRAW_2YR_TRANS_YR4_RT'
p1860
g79
tp1861
a(S'NOPELL_ENRL_ORIG_YR4_RT'
p1862
g79
tp1863
a(S'NOPELL_ENRL_4YR_TRANS_YR4_RT'
p1864
g79
tp1865
a(S'NOPELL_ENRL_2YR_TRANS_YR4_RT'
p1866
g79
tp1867
a(S'NOPELL_UNKN_ORIG_YR4_RT'
p1868
g79
tp1869
a(S'NOPELL_UNKN_4YR_TRANS_YR4_RT'
p1870
g79
tp1871
a(S'NOPELL_UNKN_2YR_TRANS_YR4_RT'
p1872
g79
tp1873
a(S'LOAN_DEATH_YR4_RT'
p1874
g79
tp1875
a(S'LOAN_COMP_ORIG_YR4_RT'
p1876
g79
tp1877
a(S'LOAN_COMP_4YR_TRANS_YR4_RT'
p1878
g79
tp1879
a(S'LOAN_COMP_2YR_TRANS_YR4_RT'
p1880
g79
tp1881
a(S'LOAN_WDRAW_ORIG_YR4_RT'
p1882
g79
tp1883
a(S'LOAN_WDRAW_4YR_TRANS_YR4_RT'
p1884
g79
tp1885
a(S'LOAN_WDRAW_2YR_TRANS_YR4_RT'
p1886
g79
tp1887
a(S'LOAN_ENRL_ORIG_YR4_RT'
p1888
g79
tp1889
a(S'LOAN_ENRL_4YR_TRANS_YR4_RT'
p1890
g79
tp1891
a(S'LOAN_ENRL_2YR_TRANS_YR4_RT'
p1892
g79
tp1893
a(S'LOAN_UNKN_ORIG_YR4_RT'
p1894
g79
tp1895
a(S'LOAN_UNKN_4YR_TRANS_YR4_RT'
p1896
g79
tp1897
a(S'LOAN_UNKN_2YR_TRANS_YR4_RT'
p1898
g79
tp1899
a(S'NOLOAN_DEATH_YR4_RT'
p1900
g79
tp1901
a(S'NOLOAN_COMP_ORIG_YR4_RT'
p1902
g79
tp1903
a(S'NOLOAN_COMP_4YR_TRANS_YR4_RT'
p1904
g79
tp1905
a(S'NOLOAN_COMP_2YR_TRANS_YR4_RT'
p1906
g79
tp1907
a(S'NOLOAN_WDRAW_ORIG_YR4_RT'
p1908
g79
tp1909
a(S'NOLOAN_WDRAW_4YR_TRANS_YR4_RT'
p1910
g79
tp1911
a(S'NOLOAN_WDRAW_2YR_TRANS_YR4_RT'
p1912
g79
tp1913
a(S'NOLOAN_ENRL_ORIG_YR4_RT'
p1914
g79
tp1915
a(S'NOLOAN_ENRL_4YR_TRANS_YR4_RT'
p1916
g79
tp1917
a(S'NOLOAN_ENRL_2YR_TRANS_YR4_RT'
p1918
g79
tp1919
a(S'NOLOAN_UNKN_ORIG_YR4_RT'
p1920
g79
tp1921
a(S'NOLOAN_UNKN_4YR_TRANS_YR4_RT'
p1922
g79
tp1923
a(S'NOLOAN_UNKN_2YR_TRANS_YR4_RT'
p1924
g79
tp1925
a(S'FIRSTGEN_DEATH_YR4_RT'
p1926
g79
tp1927
a(S'FIRSTGEN_COMP_ORIG_YR4_RT'
p1928
g79
tp1929
a(S'FIRSTGEN_COMP_4YR_TRANS_YR4_RT'
p1930
g79
tp1931
a(S'FIRSTGEN_COMP_2YR_TRANS_YR4_RT'
p1932
g79
tp1933
a(S'FIRSTGEN_WDRAW_ORIG_YR4_RT'
p1934
g79
tp1935
a(S'FIRSTGEN_WDRAW_4YR_TRANS_YR4_RT'
p1936
g79
tp1937
a(S'FIRSTGEN_WDRAW_2YR_TRANS_YR4_RT'
p1938
g79
tp1939
a(S'FIRSTGEN_ENRL_ORIG_YR4_RT'
p1940
g79
tp1941
a(S'FIRSTGEN_ENRL_4YR_TRANS_YR4_RT'
p1942
g79
tp1943
a(S'FIRSTGEN_ENRL_2YR_TRANS_YR4_RT'
p1944
g79
tp1945
a(S'FIRSTGEN_UNKN_ORIG_YR4_RT'
p1946
g79
tp1947
a(S'FIRSTGEN_UNKN_4YR_TRANS_YR4_RT'
p1948
g79
tp1949
a(S'FIRSTGEN_UNKN_2YR_TRANS_YR4_RT'
p1950
g79
tp1951
a(S'NOT1STGEN_DEATH_YR4_RT'
p1952
g79
tp1953
a(S'NOT1STGEN_COMP_ORIG_YR4_RT'
p1954
g79
tp1955
a(S'NOT1STGEN_COMP_4YR_TRANS_YR4_RT'
p1956
g79
tp1957
a(S'NOT1STGEN_COMP_2YR_TRANS_YR4_RT'
p1958
g79
tp1959
a(S'NOT1STGEN_WDRAW_ORIG_YR4_RT'
p1960
g79
tp1961
a(S'NOT1STGEN_WDRAW_4YR_TRANS_YR4_RT'
p1962
g79
tp1963
a(S'NOT1STGEN_WDRAW_2YR_TRANS_YR4_RT'
p1964
g79
tp1965
a(S'NOT1STGEN_ENRL_ORIG_YR4_RT'
p1966
g79
tp1967
a(S'NOT1STGEN_ENRL_4YR_TRANS_YR4_RT'
p1968
g79
tp1969
a(S'NOT1STGEN_ENRL_2YR_TRANS_YR4_RT'
p1970
g79
tp1971
a(S'NOT1STGEN_UNKN_ORIG_YR4_RT'
p1972
g79
tp1973
a(S'NOT1STGEN_UNKN_4YR_TRANS_YR4_RT'
p1974
g79
tp1975
a(S'NOT1STGEN_UNKN_2YR_TRANS_YR4_RT'
p1976
g79
tp1977
a(S'DEATH_YR6_RT'
p1978
g79
tp1979
a(S'COMP_ORIG_YR6_RT'
p1980
g79
tp1981
a(S'COMP_4YR_TRANS_YR6_RT'
p1982
g79
tp1983
a(S'COMP_2YR_TRANS_YR6_RT'
p1984
g79
tp1985
a(S'WDRAW_ORIG_YR6_RT'
p1986
g79
tp1987
a(S'WDRAW_4YR_TRANS_YR6_RT'
p1988
g79
tp1989
a(S'WDRAW_2YR_TRANS_YR6_RT'
p1990
g79
tp1991
a(S'ENRL_ORIG_YR6_RT'
p1992
g79
tp1993
a(S'ENRL_4YR_TRANS_YR6_RT'
p1994
g79
tp1995
a(S'ENRL_2YR_TRANS_YR6_RT'
p1996
g79
tp1997
a(S'UNKN_ORIG_YR6_RT'
p1998
g79
tp1999
a(S'UNKN_4YR_TRANS_YR6_RT'
p2000
g79
tp2001
a(S'UNKN_2YR_TRANS_YR6_RT'
p2002
g79
tp2003
a(S'LO_INC_DEATH_YR6_RT'
p2004
g79
tp2005
a(S'LO_INC_COMP_ORIG_YR6_RT'
p2006
g79
tp2007
a(S'LO_INC_COMP_4YR_TRANS_YR6_RT'
p2008
g79
tp2009
a(S'LO_INC_COMP_2YR_TRANS_YR6_RT'
p2010
g79
tp2011
a(S'LO_INC_WDRAW_ORIG_YR6_RT'
p2012
g79
tp2013
a(S'LO_INC_WDRAW_4YR_TRANS_YR6_RT'
p2014
g79
tp2015
a(S'LO_INC_WDRAW_2YR_TRANS_YR6_RT'
p2016
g79
tp2017
a(S'LO_INC_ENRL_ORIG_YR6_RT'
p2018
g79
tp2019
a(S'LO_INC_ENRL_4YR_TRANS_YR6_RT'
p2020
g79
tp2021
a(S'LO_INC_ENRL_2YR_TRANS_YR6_RT'
p2022
g79
tp2023
a(S'LO_INC_UNKN_ORIG_YR6_RT'
p2024
g79
tp2025
a(S'LO_INC_UNKN_4YR_TRANS_YR6_RT'
p2026
g79
tp2027
a(S'LO_INC_UNKN_2YR_TRANS_YR6_RT'
p2028
g79
tp2029
a(S'MD_INC_DEATH_YR6_RT'
p2030
g79
tp2031
a(S'MD_INC_COMP_ORIG_YR6_RT'
p2032
g79
tp2033
a(S'MD_INC_COMP_4YR_TRANS_YR6_RT'
p2034
g79
tp2035
a(S'MD_INC_COMP_2YR_TRANS_YR6_RT'
p2036
g79
tp2037
a(S'MD_INC_WDRAW_ORIG_YR6_RT'
p2038
g79
tp2039
a(S'MD_INC_WDRAW_4YR_TRANS_YR6_RT'
p2040
g79
tp2041
a(S'MD_INC_WDRAW_2YR_TRANS_YR6_RT'
p2042
g79
tp2043
a(S'MD_INC_ENRL_ORIG_YR6_RT'
p2044
g79
tp2045
a(S'MD_INC_ENRL_4YR_TRANS_YR6_RT'
p2046
g79
tp2047
a(S'MD_INC_ENRL_2YR_TRANS_YR6_RT'
p2048
g79
tp2049
a(S'MD_INC_UNKN_ORIG_YR6_RT'
p2050
g79
tp2051
a(S'MD_INC_UNKN_4YR_TRANS_YR6_RT'
p2052
g79
tp2053
a(S'MD_INC_UNKN_2YR_TRANS_YR6_RT'
p2054
g79
tp2055
a(S'HI_INC_DEATH_YR6_RT'
p2056
g79
tp2057
a(S'HI_INC_COMP_ORIG_YR6_RT'
p2058
g79
tp2059
a(S'HI_INC_COMP_4YR_TRANS_YR6_RT'
p2060
g79
tp2061
a(S'HI_INC_COMP_2YR_TRANS_YR6_RT'
p2062
g79
tp2063
a(S'HI_INC_WDRAW_ORIG_YR6_RT'
p2064
g79
tp2065
a(S'HI_INC_WDRAW_4YR_TRANS_YR6_RT'
p2066
g79
tp2067
a(S'HI_INC_WDRAW_2YR_TRANS_YR6_RT'
p2068
g79
tp2069
a(S'HI_INC_ENRL_ORIG_YR6_RT'
p2070
g79
tp2071
a(S'HI_INC_ENRL_4YR_TRANS_YR6_RT'
p2072
g79
tp2073
a(S'HI_INC_ENRL_2YR_TRANS_YR6_RT'
p2074
g79
tp2075
a(S'HI_INC_UNKN_ORIG_YR6_RT'
p2076
g79
tp2077
a(S'HI_INC_UNKN_4YR_TRANS_YR6_RT'
p2078
g79
tp2079
a(S'HI_INC_UNKN_2YR_TRANS_YR6_RT'
p2080
g79
tp2081
a(S'DEP_DEATH_YR6_RT'
p2082
g79
tp2083
a(S'DEP_COMP_ORIG_YR6_RT'
p2084
g79
tp2085
a(S'DEP_COMP_4YR_TRANS_YR6_RT'
p2086
g79
tp2087
a(S'DEP_COMP_2YR_TRANS_YR6_RT'
p2088
g79
tp2089
a(S'DEP_WDRAW_ORIG_YR6_RT'
p2090
g79
tp2091
a(S'DEP_WDRAW_4YR_TRANS_YR6_RT'
p2092
g79
tp2093
a(S'DEP_WDRAW_2YR_TRANS_YR6_RT'
p2094
g79
tp2095
a(S'DEP_ENRL_ORIG_YR6_RT'
p2096
g79
tp2097
a(S'DEP_ENRL_4YR_TRANS_YR6_RT'
p2098
g79
tp2099
a(S'DEP_ENRL_2YR_TRANS_YR6_RT'
p2100
g79
tp2101
a(S'DEP_UNKN_ORIG_YR6_RT'
p2102
g79
tp2103
a(S'DEP_UNKN_4YR_TRANS_YR6_RT'
p2104
g79
tp2105
a(S'DEP_UNKN_2YR_TRANS_YR6_RT'
p2106
g79
tp2107
a(S'IND_DEATH_YR6_RT'
p2108
g79
tp2109
a(S'IND_COMP_ORIG_YR6_RT'
p2110
g79
tp2111
a(S'IND_COMP_4YR_TRANS_YR6_RT'
p2112
g79
tp2113
a(S'IND_COMP_2YR_TRANS_YR6_RT'
p2114
g79
tp2115
a(S'IND_WDRAW_ORIG_YR6_RT'
p2116
g79
tp2117
a(S'IND_WDRAW_4YR_TRANS_YR6_RT'
p2118
g79
tp2119
a(S'IND_WDRAW_2YR_TRANS_YR6_RT'
p2120
g79
tp2121
a(S'IND_ENRL_ORIG_YR6_RT'
p2122
g79
tp2123
a(S'IND_ENRL_4YR_TRANS_YR6_RT'
p2124
g79
tp2125
a(S'IND_ENRL_2YR_TRANS_YR6_RT'
p2126
g79
tp2127
a(S'IND_UNKN_ORIG_YR6_RT'
p2128
g79
tp2129
a(S'IND_UNKN_4YR_TRANS_YR6_RT'
p2130
g79
tp2131
a(S'IND_UNKN_2YR_TRANS_YR6_RT'
p2132
g79
tp2133
a(S'FEMALE_DEATH_YR6_RT'
p2134
g79
tp2135
a(S'FEMALE_COMP_ORIG_YR6_RT'
p2136
g79
tp2137
a(S'FEMALE_COMP_4YR_TRANS_YR6_RT'
p2138
g79
tp2139
a(S'FEMALE_COMP_2YR_TRANS_YR6_RT'
p2140
g79
tp2141
a(S'FEMALE_WDRAW_ORIG_YR6_RT'
p2142
g79
tp2143
a(S'FEMALE_WDRAW_4YR_TRANS_YR6_RT'
p2144
g79
tp2145
a(S'FEMALE_WDRAW_2YR_TRANS_YR6_RT'
p2146
g79
tp2147
a(S'FEMALE_ENRL_ORIG_YR6_RT'
p2148
g79
tp2149
a(S'FEMALE_ENRL_4YR_TRANS_YR6_RT'
p2150
g79
tp2151
a(S'FEMALE_ENRL_2YR_TRANS_YR6_RT'
p2152
g79
tp2153
a(S'FEMALE_UNKN_ORIG_YR6_RT'
p2154
g79
tp2155
a(S'FEMALE_UNKN_4YR_TRANS_YR6_RT'
p2156
g79
tp2157
a(S'FEMALE_UNKN_2YR_TRANS_YR6_RT'
p2158
g79
tp2159
a(S'MALE_DEATH_YR6_RT'
p2160
g79
tp2161
a(S'MALE_COMP_ORIG_YR6_RT'
p2162
g79
tp2163
a(S'MALE_COMP_4YR_TRANS_YR6_RT'
p2164
g79
tp2165
a(S'MALE_COMP_2YR_TRANS_YR6_RT'
p2166
g79
tp2167
a(S'MALE_WDRAW_ORIG_YR6_RT'
p2168
g79
tp2169
a(S'MALE_WDRAW_4YR_TRANS_YR6_RT'
p2170
g79
tp2171
a(S'MALE_WDRAW_2YR_TRANS_YR6_RT'
p2172
g79
tp2173
a(S'MALE_ENRL_ORIG_YR6_RT'
p2174
g79
tp2175
a(S'MALE_ENRL_4YR_TRANS_YR6_RT'
p2176
g79
tp2177
a(S'MALE_ENRL_2YR_TRANS_YR6_RT'
p2178
g79
tp2179
a(S'MALE_UNKN_ORIG_YR6_RT'
p2180
g79
tp2181
a(S'MALE_UNKN_4YR_TRANS_YR6_RT'
p2182
g79
tp2183
a(S'MALE_UNKN_2YR_TRANS_YR6_RT'
p2184
g79
tp2185
a(S'PELL_DEATH_YR6_RT'
p2186
g79
tp2187
a(S'PELL_COMP_ORIG_YR6_RT'
p2188
g79
tp2189
a(S'PELL_COMP_4YR_TRANS_YR6_RT'
p2190
g79
tp2191
a(S'PELL_COMP_2YR_TRANS_YR6_RT'
p2192
g79
tp2193
a(S'PELL_WDRAW_ORIG_YR6_RT'
p2194
g79
tp2195
a(S'PELL_WDRAW_4YR_TRANS_YR6_RT'
p2196
g79
tp2197
a(S'PELL_WDRAW_2YR_TRANS_YR6_RT'
p2198
g79
tp2199
a(S'PELL_ENRL_ORIG_YR6_RT'
p2200
g79
tp2201
a(S'PELL_ENRL_4YR_TRANS_YR6_RT'
p2202
g79
tp2203
a(S'PELL_ENRL_2YR_TRANS_YR6_RT'
p2204
g79
tp2205
a(S'PELL_UNKN_ORIG_YR6_RT'
p2206
g79
tp2207
a(S'PELL_UNKN_4YR_TRANS_YR6_RT'
p2208
g79
tp2209
a(S'PELL_UNKN_2YR_TRANS_YR6_RT'
p2210
g79
tp2211
a(S'NOPELL_DEATH_YR6_RT'
p2212
g79
tp2213
a(S'NOPELL_COMP_ORIG_YR6_RT'
p2214
g79
tp2215
a(S'NOPELL_COMP_4YR_TRANS_YR6_RT'
p2216
g79
tp2217
a(S'NOPELL_COMP_2YR_TRANS_YR6_RT'
p2218
g79
tp2219
a(S'NOPELL_WDRAW_ORIG_YR6_RT'
p2220
g79
tp2221
a(S'NOPELL_WDRAW_4YR_TRANS_YR6_RT'
p2222
g79
tp2223
a(S'NOPELL_WDRAW_2YR_TRANS_YR6_RT'
p2224
g79
tp2225
a(S'NOPELL_ENRL_ORIG_YR6_RT'
p2226
g79
tp2227
a(S'NOPELL_ENRL_4YR_TRANS_YR6_RT'
p2228
g79
tp2229
a(S'NOPELL_ENRL_2YR_TRANS_YR6_RT'
p2230
g79
tp2231
a(S'NOPELL_UNKN_ORIG_YR6_RT'
p2232
g79
tp2233
a(S'NOPELL_UNKN_4YR_TRANS_YR6_RT'
p2234
g79
tp2235
a(S'NOPELL_UNKN_2YR_TRANS_YR6_RT'
p2236
g79
tp2237
a(S'LOAN_DEATH_YR6_RT'
p2238
g79
tp2239
a(S'LOAN_COMP_ORIG_YR6_RT'
p2240
g79
tp2241
a(S'LOAN_COMP_4YR_TRANS_YR6_RT'
p2242
g79
tp2243
a(S'LOAN_COMP_2YR_TRANS_YR6_RT'
p2244
g79
tp2245
a(S'LOAN_WDRAW_ORIG_YR6_RT'
p2246
g79
tp2247
a(S'LOAN_WDRAW_4YR_TRANS_YR6_RT'
p2248
g79
tp2249
a(S'LOAN_WDRAW_2YR_TRANS_YR6_RT'
p2250
g79
tp2251
a(S'LOAN_ENRL_ORIG_YR6_RT'
p2252
g79
tp2253
a(S'LOAN_ENRL_4YR_TRANS_YR6_RT'
p2254
g79
tp2255
a(S'LOAN_ENRL_2YR_TRANS_YR6_RT'
p2256
g79
tp2257
a(S'LOAN_UNKN_ORIG_YR6_RT'
p2258
g79
tp2259
a(S'LOAN_UNKN_4YR_TRANS_YR6_RT'
p2260
g79
tp2261
a(S'LOAN_UNKN_2YR_TRANS_YR6_RT'
p2262
g79
tp2263
a(S'NOLOAN_DEATH_YR6_RT'
p2264
g79
tp2265
a(S'NOLOAN_COMP_ORIG_YR6_RT'
p2266
g79
tp2267
a(S'NOLOAN_COMP_4YR_TRANS_YR6_RT'
p2268
g79
tp2269
a(S'NOLOAN_COMP_2YR_TRANS_YR6_RT'
p2270
g79
tp2271
a(S'NOLOAN_WDRAW_ORIG_YR6_RT'
p2272
g79
tp2273
a(S'NOLOAN_WDRAW_4YR_TRANS_YR6_RT'
p2274
g79
tp2275
a(S'NOLOAN_WDRAW_2YR_TRANS_YR6_RT'
p2276
g79
tp2277
a(S'NOLOAN_ENRL_ORIG_YR6_RT'
p2278
g79
tp2279
a(S'NOLOAN_ENRL_4YR_TRANS_YR6_RT'
p2280
g79
tp2281
a(S'NOLOAN_ENRL_2YR_TRANS_YR6_RT'
p2282
g79
tp2283
a(S'NOLOAN_UNKN_ORIG_YR6_RT'
p2284
g79
tp2285
a(S'NOLOAN_UNKN_4YR_TRANS_YR6_RT'
p2286
g79
tp2287
a(S'NOLOAN_UNKN_2YR_TRANS_YR6_RT'
p2288
g79
tp2289
a(S'FIRSTGEN_DEATH_YR6_RT'
p2290
g79
tp2291
a(S'FIRSTGEN_COMP_ORIG_YR6_RT'
p2292
g79
tp2293
a(S'FIRSTGEN_COMP_4YR_TRANS_YR6_RT'
p2294
g79
tp2295
a(S'FIRSTGEN_COMP_2YR_TRANS_YR6_RT'
p2296
g79
tp2297
a(S'FIRSTGEN_WDRAW_ORIG_YR6_RT'
p2298
g79
tp2299
a(S'FIRSTGEN_WDRAW_4YR_TRANS_YR6_RT'
p2300
g79
tp2301
a(S'FIRSTGEN_WDRAW_2YR_TRANS_YR6_RT'
p2302
g79
tp2303
a(S'FIRSTGEN_ENRL_ORIG_YR6_RT'
p2304
g79
tp2305
a(S'FIRSTGEN_ENRL_4YR_TRANS_YR6_RT'
p2306
g79
tp2307
a(S'FIRSTGEN_ENRL_2YR_TRANS_YR6_RT'
p2308
g79
tp2309
a(S'FIRSTGEN_UNKN_ORIG_YR6_RT'
p2310
g79
tp2311
a(S'FIRSTGEN_UNKN_4YR_TRANS_YR6_RT'
p2312
g79
tp2313
a(S'FIRSTGEN_UNKN_2YR_TRANS_YR6_RT'
p2314
g79
tp2315
a(S'NOT1STGEN_DEATH_YR6_RT'
p2316
g79
tp2317
a(S'NOT1STGEN_COMP_ORIG_YR6_RT'
p2318
g79
tp2319
a(S'NOT1STGEN_COMP_4YR_TRANS_YR6_RT'
p2320
g79
tp2321
a(S'NOT1STGEN_COMP_2YR_TRANS_YR6_RT'
p2322
g79
tp2323
a(S'NOT1STGEN_WDRAW_ORIG_YR6_RT'
p2324
g79
tp2325
a(S'NOT1STGEN_WDRAW_4YR_TRANS_YR6_RT'
p2326
g79
tp2327
a(S'NOT1STGEN_WDRAW_2YR_TRANS_YR6_RT'
p2328
g79
tp2329
a(S'NOT1STGEN_ENRL_ORIG_YR6_RT'
p2330
g79
tp2331
a(S'NOT1STGEN_ENRL_4YR_TRANS_YR6_RT'
p2332
g79
tp2333
a(S'NOT1STGEN_ENRL_2YR_TRANS_YR6_RT'
p2334
g79
tp2335
a(S'NOT1STGEN_UNKN_ORIG_YR6_RT'
p2336
g79
tp2337
a(S'NOT1STGEN_UNKN_4YR_TRANS_YR6_RT'
p2338
g79
tp2339
a(S'NOT1STGEN_UNKN_2YR_TRANS_YR6_RT'
p2340
g79
tp2341
a(S'DEATH_YR8_RT'
p2342
g79
tp2343
a(S'COMP_ORIG_YR8_RT'
p2344
g79
tp2345
a(S'COMP_4YR_TRANS_YR8_RT'
p2346
g79
tp2347
a(S'COMP_2YR_TRANS_YR8_RT'
p2348
g79
tp2349
a(S'WDRAW_ORIG_YR8_RT'
p2350
g79
tp2351
a(S'WDRAW_4YR_TRANS_YR8_RT'
p2352
g79
tp2353
a(S'WDRAW_2YR_TRANS_YR8_RT'
p2354
g79
tp2355
a(S'ENRL_ORIG_YR8_RT'
p2356
g79
tp2357
a(S'ENRL_4YR_TRANS_YR8_RT'
p2358
g79
tp2359
a(S'ENRL_2YR_TRANS_YR8_RT'
p2360
g79
tp2361
a(S'UNKN_ORIG_YR8_RT'
p2362
g79
tp2363
a(S'UNKN_4YR_TRANS_YR8_RT'
p2364
g79
tp2365
a(S'UNKN_2YR_TRANS_YR8_RT'
p2366
g79
tp2367
a(S'LO_INC_DEATH_YR8_RT'
p2368
g79
tp2369
a(S'LO_INC_COMP_ORIG_YR8_RT'
p2370
g79
tp2371
a(S'LO_INC_COMP_4YR_TRANS_YR8_RT'
p2372
g79
tp2373
a(S'LO_INC_COMP_2YR_TRANS_YR8_RT'
p2374
g79
tp2375
a(S'LO_INC_WDRAW_ORIG_YR8_RT'
p2376
g79
tp2377
a(S'LO_INC_WDRAW_4YR_TRANS_YR8_RT'
p2378
g79
tp2379
a(S'LO_INC_WDRAW_2YR_TRANS_YR8_RT'
p2380
g79
tp2381
a(S'LO_INC_ENRL_ORIG_YR8_RT'
p2382
g79
tp2383
a(S'LO_INC_ENRL_4YR_TRANS_YR8_RT'
p2384
g79
tp2385
a(S'LO_INC_ENRL_2YR_TRANS_YR8_RT'
p2386
g79
tp2387
a(S'LO_INC_UNKN_ORIG_YR8_RT'
p2388
g79
tp2389
a(S'LO_INC_UNKN_4YR_TRANS_YR8_RT'
p2390
g79
tp2391
a(S'LO_INC_UNKN_2YR_TRANS_YR8_RT'
p2392
g79
tp2393
a(S'MD_INC_DEATH_YR8_RT'
p2394
g79
tp2395
a(S'MD_INC_COMP_ORIG_YR8_RT'
p2396
g79
tp2397
a(S'MD_INC_COMP_4YR_TRANS_YR8_RT'
p2398
g79
tp2399
a(S'MD_INC_COMP_2YR_TRANS_YR8_RT'
p2400
g79
tp2401
a(S'MD_INC_WDRAW_ORIG_YR8_RT'
p2402
g79
tp2403
a(S'MD_INC_WDRAW_4YR_TRANS_YR8_RT'
p2404
g79
tp2405
a(S'MD_INC_WDRAW_2YR_TRANS_YR8_RT'
p2406
g79
tp2407
a(S'MD_INC_ENRL_ORIG_YR8_RT'
p2408
g79
tp2409
a(S'MD_INC_ENRL_4YR_TRANS_YR8_RT'
p2410
g79
tp2411
a(S'MD_INC_ENRL_2YR_TRANS_YR8_RT'
p2412
g79
tp2413
a(S'MD_INC_UNKN_ORIG_YR8_RT'
p2414
g79
tp2415
a(S'MD_INC_UNKN_4YR_TRANS_YR8_RT'
p2416
g79
tp2417
a(S'MD_INC_UNKN_2YR_TRANS_YR8_RT'
p2418
g79
tp2419
a(S'HI_INC_DEATH_YR8_RT'
p2420
g79
tp2421
a(S'HI_INC_COMP_ORIG_YR8_RT'
p2422
g79
tp2423
a(S'HI_INC_COMP_4YR_TRANS_YR8_RT'
p2424
g79
tp2425
a(S'HI_INC_COMP_2YR_TRANS_YR8_RT'
p2426
g79
tp2427
a(S'HI_INC_WDRAW_ORIG_YR8_RT'
p2428
g79
tp2429
a(S'HI_INC_WDRAW_4YR_TRANS_YR8_RT'
p2430
g79
tp2431
a(S'HI_INC_WDRAW_2YR_TRANS_YR8_RT'
p2432
g79
tp2433
a(S'HI_INC_ENRL_ORIG_YR8_RT'
p2434
g79
tp2435
a(S'HI_INC_ENRL_4YR_TRANS_YR8_RT'
p2436
g79
tp2437
a(S'HI_INC_ENRL_2YR_TRANS_YR8_RT'
p2438
g79
tp2439
a(S'HI_INC_UNKN_ORIG_YR8_RT'
p2440
g79
tp2441
a(S'HI_INC_UNKN_4YR_TRANS_YR8_RT'
p2442
g79
tp2443
a(S'HI_INC_UNKN_2YR_TRANS_YR8_RT'
p2444
g79
tp2445
a(S'DEP_DEATH_YR8_RT'
p2446
g79
tp2447
a(S'DEP_COMP_ORIG_YR8_RT'
p2448
g79
tp2449
a(S'DEP_COMP_4YR_TRANS_YR8_RT'
p2450
g79
tp2451
a(S'DEP_COMP_2YR_TRANS_YR8_RT'
p2452
g79
tp2453
a(S'DEP_WDRAW_ORIG_YR8_RT'
p2454
g79
tp2455
a(S'DEP_WDRAW_4YR_TRANS_YR8_RT'
p2456
g79
tp2457
a(S'DEP_WDRAW_2YR_TRANS_YR8_RT'
p2458
g79
tp2459
a(S'DEP_ENRL_ORIG_YR8_RT'
p2460
g79
tp2461
a(S'DEP_ENRL_4YR_TRANS_YR8_RT'
p2462
g79
tp2463
a(S'DEP_ENRL_2YR_TRANS_YR8_RT'
p2464
g79
tp2465
a(S'DEP_UNKN_ORIG_YR8_RT'
p2466
g79
tp2467
a(S'DEP_UNKN_4YR_TRANS_YR8_RT'
p2468
g79
tp2469
a(S'DEP_UNKN_2YR_TRANS_YR8_RT'
p2470
g79
tp2471
a(S'IND_DEATH_YR8_RT'
p2472
g79
tp2473
a(S'IND_COMP_ORIG_YR8_RT'
p2474
g79
tp2475
a(S'IND_COMP_4YR_TRANS_YR8_RT'
p2476
g79
tp2477
a(S'IND_COMP_2YR_TRANS_YR8_RT'
p2478
g79
tp2479
a(S'IND_WDRAW_ORIG_YR8_RT'
p2480
g79
tp2481
a(S'IND_WDRAW_4YR_TRANS_YR8_RT'
p2482
g79
tp2483
a(S'IND_WDRAW_2YR_TRANS_YR8_RT'
p2484
g79
tp2485
a(S'IND_ENRL_ORIG_YR8_RT'
p2486
g79
tp2487
a(S'IND_ENRL_4YR_TRANS_YR8_RT'
p2488
g79
tp2489
a(S'IND_ENRL_2YR_TRANS_YR8_RT'
p2490
g79
tp2491
a(S'IND_UNKN_ORIG_YR8_RT'
p2492
g79
tp2493
a(S'IND_UNKN_4YR_TRANS_YR8_RT'
p2494
g79
tp2495
a(S'IND_UNKN_2YR_TRANS_YR8_RT'
p2496
g79
tp2497
a(S'FEMALE_DEATH_YR8_RT'
p2498
g79
tp2499
a(S'FEMALE_COMP_ORIG_YR8_RT'
p2500
g79
tp2501
a(S'FEMALE_COMP_4YR_TRANS_YR8_RT'
p2502
g79
tp2503
a(S'FEMALE_COMP_2YR_TRANS_YR8_RT'
p2504
g79
tp2505
a(S'FEMALE_WDRAW_ORIG_YR8_RT'
p2506
g79
tp2507
a(S'FEMALE_WDRAW_4YR_TRANS_YR8_RT'
p2508
g79
tp2509
a(S'FEMALE_WDRAW_2YR_TRANS_YR8_RT'
p2510
g79
tp2511
a(S'FEMALE_ENRL_ORIG_YR8_RT'
p2512
g79
tp2513
a(S'FEMALE_ENRL_4YR_TRANS_YR8_RT'
p2514
g79
tp2515
a(S'FEMALE_ENRL_2YR_TRANS_YR8_RT'
p2516
g79
tp2517
a(S'FEMALE_UNKN_ORIG_YR8_RT'
p2518
g79
tp2519
a(S'FEMALE_UNKN_4YR_TRANS_YR8_RT'
p2520
g79
tp2521
a(S'FEMALE_UNKN_2YR_TRANS_YR8_RT'
p2522
g79
tp2523
a(S'MALE_DEATH_YR8_RT'
p2524
g79
tp2525
a(S'MALE_COMP_ORIG_YR8_RT'
p2526
g79
tp2527
a(S'MALE_COMP_4YR_TRANS_YR8_RT'
p2528
g79
tp2529
a(S'MALE_COMP_2YR_TRANS_YR8_RT'
p2530
g79
tp2531
a(S'MALE_WDRAW_ORIG_YR8_RT'
p2532
g79
tp2533
a(S'MALE_WDRAW_4YR_TRANS_YR8_RT'
p2534
g79
tp2535
a(S'MALE_WDRAW_2YR_TRANS_YR8_RT'
p2536
g79
tp2537
a(S'MALE_ENRL_ORIG_YR8_RT'
p2538
g79
tp2539
a(S'MALE_ENRL_4YR_TRANS_YR8_RT'
p2540
g79
tp2541
a(S'MALE_ENRL_2YR_TRANS_YR8_RT'
p2542
g79
tp2543
a(S'MALE_UNKN_ORIG_YR8_RT'
p2544
g79
tp2545
a(S'MALE_UNKN_4YR_TRANS_YR8_RT'
p2546
g79
tp2547
a(S'MALE_UNKN_2YR_TRANS_YR8_RT'
p2548
g79
tp2549
a(S'PELL_DEATH_YR8_RT'
p2550
g79
tp2551
a(S'PELL_COMP_ORIG_YR8_RT'
p2552
g79
tp2553
a(S'PELL_COMP_4YR_TRANS_YR8_RT'
p2554
g79
tp2555
a(S'PELL_COMP_2YR_TRANS_YR8_RT'
p2556
g79
tp2557
a(S'PELL_WDRAW_ORIG_YR8_RT'
p2558
g79
tp2559
a(S'PELL_WDRAW_4YR_TRANS_YR8_RT'
p2560
g79
tp2561
a(S'PELL_WDRAW_2YR_TRANS_YR8_RT'
p2562
g79
tp2563
a(S'PELL_ENRL_ORIG_YR8_RT'
p2564
g79
tp2565
a(S'PELL_ENRL_4YR_TRANS_YR8_RT'
p2566
g79
tp2567
a(S'PELL_ENRL_2YR_TRANS_YR8_RT'
p2568
g79
tp2569
a(S'PELL_UNKN_ORIG_YR8_RT'
p2570
g79
tp2571
a(S'PELL_UNKN_4YR_TRANS_YR8_RT'
p2572
g79
tp2573
a(S'PELL_UNKN_2YR_TRANS_YR8_RT'
p2574
g79
tp2575
a(S'NOPELL_DEATH_YR8_RT'
p2576
g79
tp2577
a(S'NOPELL_COMP_ORIG_YR8_RT'
p2578
g79
tp2579
a(S'NOPELL_COMP_4YR_TRANS_YR8_RT'
p2580
g79
tp2581
a(S'NOPELL_COMP_2YR_TRANS_YR8_RT'
p2582
g79
tp2583
a(S'NOPELL_WDRAW_ORIG_YR8_RT'
p2584
g79
tp2585
a(S'NOPELL_WDRAW_4YR_TRANS_YR8_RT'
p2586
g79
tp2587
a(S'NOPELL_WDRAW_2YR_TRANS_YR8_RT'
p2588
g79
tp2589
a(S'NOPELL_ENRL_ORIG_YR8_RT'
p2590
g79
tp2591
a(S'NOPELL_ENRL_4YR_TRANS_YR8_RT'
p2592
g79
tp2593
a(S'NOPELL_ENRL_2YR_TRANS_YR8_RT'
p2594
g79
tp2595
a(S'NOPELL_UNKN_ORIG_YR8_RT'
p2596
g79
tp2597
a(S'NOPELL_UNKN_4YR_TRANS_YR8_RT'
p2598
g79
tp2599
a(S'NOPELL_UNKN_2YR_TRANS_YR8_RT'
p2600
g79
tp2601
a(S'LOAN_DEATH_YR8_RT'
p2602
g79
tp2603
a(S'LOAN_COMP_ORIG_YR8_RT'
p2604
g79
tp2605
a(S'LOAN_COMP_4YR_TRANS_YR8_RT'
p2606
g79
tp2607
a(S'LOAN_COMP_2YR_TRANS_YR8_RT'
p2608
g79
tp2609
a(S'LOAN_WDRAW_ORIG_YR8_RT'
p2610
g79
tp2611
a(S'LOAN_WDRAW_4YR_TRANS_YR8_RT'
p2612
g79
tp2613
a(S'LOAN_WDRAW_2YR_TRANS_YR8_RT'
p2614
g79
tp2615
a(S'LOAN_ENRL_ORIG_YR8_RT'
p2616
g79
tp2617
a(S'LOAN_ENRL_4YR_TRANS_YR8_RT'
p2618
g79
tp2619
a(S'LOAN_ENRL_2YR_TRANS_YR8_RT'
p2620
g79
tp2621
a(S'LOAN_UNKN_ORIG_YR8_RT'
p2622
g79
tp2623
a(S'LOAN_UNKN_4YR_TRANS_YR8_RT'
p2624
g79
tp2625
a(S'LOAN_UNKN_2YR_TRANS_YR8_RT'
p2626
g79
tp2627
a(S'NOLOAN_DEATH_YR8_RT'
p2628
g79
tp2629
a(S'NOLOAN_COMP_ORIG_YR8_RT'
p2630
g79
tp2631
a(S'NOLOAN_COMP_4YR_TRANS_YR8_RT'
p2632
g79
tp2633
a(S'NOLOAN_COMP_2YR_TRANS_YR8_RT'
p2634
g79
tp2635
a(S'NOLOAN_WDRAW_ORIG_YR8_RT'
p2636
g79
tp2637
a(S'NOLOAN_WDRAW_4YR_TRANS_YR8_RT'
p2638
g79
tp2639
a(S'NOLOAN_WDRAW_2YR_TRANS_YR8_RT'
p2640
g79
tp2641
a(S'NOLOAN_ENRL_ORIG_YR8_RT'
p2642
g79
tp2643
a(S'NOLOAN_ENRL_4YR_TRANS_YR8_RT'
p2644
g79
tp2645
a(S'NOLOAN_ENRL_2YR_TRANS_YR8_RT'
p2646
g79
tp2647
a(S'NOLOAN_UNKN_ORIG_YR8_RT'
p2648
g79
tp2649
a(S'NOLOAN_UNKN_4YR_TRANS_YR8_RT'
p2650
g79
tp2651
a(S'NOLOAN_UNKN_2YR_TRANS_YR8_RT'
p2652
g79
tp2653
a(S'FIRSTGEN_DEATH_YR8_RT'
p2654
g79
tp2655
a(S'FIRSTGEN_COMP_ORIG_YR8_RT'
p2656
g79
tp2657
a(S'FIRSTGEN_COMP_4YR_TRANS_YR8_RT'
p2658
g79
tp2659
a(S'FIRSTGEN_COMP_2YR_TRANS_YR8_RT'
p2660
g79
tp2661
a(S'FIRSTGEN_WDRAW_ORIG_YR8_RT'
p2662
g79
tp2663
a(S'FIRSTGEN_WDRAW_4YR_TRANS_YR8_RT'
p2664
g79
tp2665
a(S'FIRSTGEN_WDRAW_2YR_TRANS_YR8_RT'
p2666
g79
tp2667
a(S'FIRSTGEN_ENRL_ORIG_YR8_RT'
p2668
g79
tp2669
a(S'FIRSTGEN_ENRL_4YR_TRANS_YR8_RT'
p2670
g79
tp2671
a(S'FIRSTGEN_ENRL_2YR_TRANS_YR8_RT'
p2672
g79
tp2673
a(S'FIRSTGEN_UNKN_ORIG_YR8_RT'
p2674
g79
tp2675
a(S'FIRSTGEN_UNKN_4YR_TRANS_YR8_RT'
p2676
g79
tp2677
a(S'FIRSTGEN_UNKN_2YR_TRANS_YR8_RT'
p2678
g79
tp2679
a(S'NOT1STGEN_DEATH_YR8_RT'
p2680
g79
tp2681
a(S'NOT1STGEN_COMP_ORIG_YR8_RT'
p2682
g79
tp2683
a(S'NOT1STGEN_COMP_4YR_TRANS_YR8_RT'
p2684
g79
tp2685
a(S'NOT1STGEN_COMP_2YR_TRANS_YR8_RT'
p2686
g79
tp2687
a(S'NOT1STGEN_WDRAW_ORIG_YR8_RT'
p2688
g79
tp2689
a(S'NOT1STGEN_WDRAW_4YR_TRANS_YR8_RT'
p2690
g79
tp2691
a(S'NOT1STGEN_WDRAW_2YR_TRANS_YR8_RT'
p2692
g79
tp2693
a(S'NOT1STGEN_ENRL_ORIG_YR8_RT'
p2694
g79
tp2695
a(S'NOT1STGEN_ENRL_4YR_TRANS_YR8_RT'
p2696
g79
tp2697
a(S'NOT1STGEN_ENRL_2YR_TRANS_YR8_RT'
p2698
g79
tp2699
a(S'NOT1STGEN_UNKN_ORIG_YR8_RT'
p2700
g79
tp2701
a(S'NOT1STGEN_UNKN_4YR_TRANS_YR8_RT'
p2702
g79
tp2703
a(S'NOT1STGEN_UNKN_2YR_TRANS_YR8_RT'
p2704
g79
tp2705
a(S'RPY_1YR_RT'
p2706
g2
tp2707
a(S'COMPL_RPY_1YR_RT'
p2708
g79
tp2709
a(S'NONCOM_RPY_1YR_RT'
p2710
g79
tp2711
a(S'LO_INC_RPY_1YR_RT'
p2712
g79
tp2713
a(S'MD_INC_RPY_1YR_RT'
p2714
g79
tp2715
a(S'HI_INC_RPY_1YR_RT'
p2716
g79
tp2717
a(S'DEP_RPY_1YR_RT'
p2718
g79
tp2719
a(S'IND_RPY_1YR_RT'
p2720
g79
tp2721
a(S'PELL_RPY_1YR_RT'
p2722
g79
tp2723
a(S'NOPELL_RPY_1YR_RT'
p2724
g79
tp2725
a(S'FEMALE_RPY_1YR_RT'
p2726
g79
tp2727
a(S'MALE_RPY_1YR_RT'
p2728
g79
tp2729
a(S'FIRSTGEN_RPY_1YR_RT'
p2730
g79
tp2731
a(S'NOTFIRSTGEN_RPY_1YR_RT'
p2732
g79
tp2733
a(S'RPY_3YR_RT'
p2734
g2
tp2735
a(S'COMPL_RPY_3YR_RT'
p2736
g79
tp2737
a(S'NONCOM_RPY_3YR_RT'
p2738
g79
tp2739
a(S'LO_INC_RPY_3YR_RT'
p2740
g79
tp2741
a(S'MD_INC_RPY_3YR_RT'
p2742
g79
tp2743
a(S'HI_INC_RPY_3YR_RT'
p2744
g79
tp2745
a(S'DEP_RPY_3YR_RT'
p2746
g79
tp2747
a(S'IND_RPY_3YR_RT'
p2748
g79
tp2749
a(S'PELL_RPY_3YR_RT'
p2750
g79
tp2751
a(S'NOPELL_RPY_3YR_RT'
p2752
g79
tp2753
a(S'FEMALE_RPY_3YR_RT'
p2754
g79
tp2755
a(S'MALE_RPY_3YR_RT'
p2756
g79
tp2757
a(S'FIRSTGEN_RPY_3YR_RT'
p2758
g79
tp2759
a(S'NOTFIRSTGEN_RPY_3YR_RT'
p2760
g79
tp2761
a(S'RPY_5YR_RT'
p2762
g2
tp2763
a(S'COMPL_RPY_5YR_RT'
p2764
g79
tp2765
a(S'NONCOM_RPY_5YR_RT'
p2766
g79
tp2767
a(S'LO_INC_RPY_5YR_RT'
p2768
g79
tp2769
a(S'MD_INC_RPY_5YR_RT'
p2770
g79
tp2771
a(S'HI_INC_RPY_5YR_RT'
p2772
g79
tp2773
a(S'DEP_RPY_5YR_RT'
p2774
g79
tp2775
a(S'IND_RPY_5YR_RT'
p2776
g79
tp2777
a(S'PELL_RPY_5YR_RT'
p2778
g79
tp2779
a(S'NOPELL_RPY_5YR_RT'
p2780
g79
tp2781
a(S'FEMALE_RPY_5YR_RT'
p2782
g79
tp2783
a(S'MALE_RPY_5YR_RT'
p2784
g79
tp2785
a(S'FIRSTGEN_RPY_5YR_RT'
p2786
g79
tp2787
a(S'NOTFIRSTGEN_RPY_5YR_RT'
p2788
g79
tp2789
a(S'RPY_7YR_RT'
p2790
g2
tp2791
a(S'COMPL_RPY_7YR_RT'
p2792
g79
tp2793
a(S'NONCOM_RPY_7YR_RT'
p2794
g79
tp2795
a(S'LO_INC_RPY_7YR_RT'
p2796
g79
tp2797
a(S'MD_INC_RPY_7YR_RT'
p2798
g79
tp2799
a(S'HI_INC_RPY_7YR_RT'
p2800
g79
tp2801
a(S'DEP_RPY_7YR_RT'
p2802
g79
tp2803
a(S'IND_RPY_7YR_RT'
p2804
g79
tp2805
a(S'PELL_RPY_7YR_RT'
p2806
g79
tp2807
a(S'NOPELL_RPY_7YR_RT'
p2808
g79
tp2809
a(S'FEMALE_RPY_7YR_RT'
p2810
g79
tp2811
a(S'MALE_RPY_7YR_RT'
p2812
g79
tp2813
a(S'FIRSTGEN_RPY_7YR_RT'
p2814
g79
tp2815
a(S'NOTFIRSTGEN_RPY_7YR_RT'
p2816
g79
tp2817
a(S'INC_PCT_LO'
p2818
g79
tp2819
a(S'DEP_STAT_PCT_IND'
p2820
g2
tp2821
a(S'DEP_INC_PCT_LO'
p2822
g79
tp2823
a(S'IND_INC_PCT_LO'
p2824
g79
tp2825
a(S'PAR_ED_PCT_1STGEN'
p2826
g79
tp2827
a(S'INC_PCT_M1'
p2828
g79
tp2829
a(S'INC_PCT_M2'
p2830
g79
tp2831
a(S'INC_PCT_H1'
p2832
g79
tp2833
a(S'INC_PCT_H2'
p2834
g79
tp2835
a(S'DEP_INC_PCT_M1'
p2836
g79
tp2837
a(S'DEP_INC_PCT_M2'
p2838
g79
tp2839
a(S'DEP_INC_PCT_H1'
p2840
g79
tp2841
a(S'DEP_INC_PCT_H2'
p2842
g79
tp2843
a(S'IND_INC_PCT_M1'
p2844
g79
tp2845
a(S'IND_INC_PCT_M2'
p2846
g79
tp2847
a(S'IND_INC_PCT_H1'
p2848
g79
tp2849
a(S'IND_INC_PCT_H2'
p2850
g79
tp2851
a(S'PAR_ED_PCT_MS'
p2852
g79
tp2853
a(S'PAR_ED_PCT_HS'
p2854
g79
tp2855
a(S'PAR_ED_PCT_PS'
p2856
g79
tp2857
a(S'APPL_SCH_PCT_GE2'
p2858
g79
tp2859
a(S'APPL_SCH_PCT_GE3'
p2860
g79
tp2861
a(S'APPL_SCH_PCT_GE4'
p2862
g79
tp2863
a(S'APPL_SCH_PCT_GE5'
p2864
g79
tp2865
a(S'DEP_INC_AVG'
p2866
g2
tp2867
a(S'IND_INC_AVG'
p2868
g2
tp2869
a(S'OVERALL_YR2_N'
p2870
g2
tp2871
a(S'LO_INC_YR2_N'
p2872
g2
tp2873
a(S'MD_INC_YR2_N'
p2874
g2
tp2875
a(S'HI_INC_YR2_N'
p2876
g2
tp2877
a(S'DEP_YR2_N'
p2878
g2
tp2879
a(S'IND_YR2_N'
p2880
g2
tp2881
a(S'FEMALE_YR2_N'
p2882
g2
tp2883
a(S'MALE_YR2_N'
p2884
g2
tp2885
a(S'PELL_YR2_N'
p2886
g2
tp2887
a(S'NOPELL_YR2_N'
p2888
g2
tp2889
a(S'LOAN_YR2_N'
p2890
g2
tp2891
a(S'NOLOAN_YR2_N'
p2892
g2
tp2893
a(S'FIRSTGEN_YR2_N'
p2894
g2
tp2895
a(S'NOT1STGEN_YR2_N'
p2896
g2
tp2897
a(S'OVERALL_YR3_N'
p2898
g2
tp2899
a(S'LO_INC_YR3_N'
p2900
g2
tp2901
a(S'MD_INC_YR3_N'
p2902
g2
tp2903
a(S'HI_INC_YR3_N'
p2904
g2
tp2905
a(S'DEP_YR3_N'
p2906
g2
tp2907
a(S'IND_YR3_N'
p2908
g2
tp2909
a(S'FEMALE_YR3_N'
p2910
g2
tp2911
a(S'MALE_YR3_N'
p2912
g2
tp2913
a(S'PELL_YR3_N'
p2914
g2
tp2915
a(S'NOPELL_YR3_N'
p2916
g2
tp2917
a(S'LOAN_YR3_N'
p2918
g2
tp2919
a(S'NOLOAN_YR3_N'
p2920
g2
tp2921
a(S'FIRSTGEN_YR3_N'
p2922
g2
tp2923
a(S'NOT1STGEN_YR3_N'
p2924
g2
tp2925
a(S'OVERALL_YR4_N'
p2926
g2
tp2927
a(S'LO_INC_YR4_N'
p2928
g2
tp2929
a(S'MD_INC_YR4_N'
p2930
g2
tp2931
a(S'HI_INC_YR4_N'
p2932
g2
tp2933
a(S'DEP_YR4_N'
p2934
g2
tp2935
a(S'IND_YR4_N'
p2936
g2
tp2937
a(S'FEMALE_YR4_N'
p2938
g2
tp2939
a(S'MALE_YR4_N'
p2940
g2
tp2941
a(S'PELL_YR4_N'
p2942
g2
tp2943
a(S'NOPELL_YR4_N'
p2944
g2
tp2945
a(S'LOAN_YR4_N'
p2946
g2
tp2947
a(S'NOLOAN_YR4_N'
p2948
g2
tp2949
a(S'FIRSTGEN_YR4_N'
p2950
g2
tp2951
a(S'NOT1STGEN_YR4_N'
p2952
g2
tp2953
a(S'OVERALL_YR6_N'
p2954
g2
tp2955
a(S'LO_INC_YR6_N'
p2956
g2
tp2957
a(S'MD_INC_YR6_N'
p2958
g2
tp2959
a(S'HI_INC_YR6_N'
p2960
g2
tp2961
a(S'DEP_YR6_N'
p2962
g2
tp2963
a(S'IND_YR6_N'
p2964
g2
tp2965
a(S'FEMALE_YR6_N'
p2966
g2
tp2967
a(S'MALE_YR6_N'
p2968
g2
tp2969
a(S'PELL_YR6_N'
p2970
g2
tp2971
a(S'NOPELL_YR6_N'
p2972
g2
tp2973
a(S'LOAN_YR6_N'
p2974
g2
tp2975
a(S'NOLOAN_YR6_N'
p2976
g2
tp2977
a(S'FIRSTGEN_YR6_N'
p2978
g2
tp2979
a(S'NOT1STGEN_YR6_N'
p2980
g2
tp2981
a(S'OVERALL_YR8_N'
p2982
g2
tp2983
a(S'LO_INC_YR8_N'
p2984
g2
tp2985
a(S'MD_INC_YR8_N'
p2986
g2
tp2987
a(S'HI_INC_YR8_N'
p2988
g2
tp2989
a(S'DEP_YR8_N'
p2990
g2
tp2991
a(S'IND_YR8_N'
p2992
g2
tp2993
a(S'FEMALE_YR8_N'
p2994
g2
tp2995
a(S'MALE_YR8_N'
p2996
g2
tp2997
a(S'PELL_YR8_N'
p2998
g2
tp2999
a(S'NOPELL_YR8_N'
p3000
g2
tp3001
a(S'LOAN_YR8_N'
p3002
g2
tp3003
a(S'NOLOAN_YR8_N'
p3004
g2
tp3005
a(S'FIRSTGEN_YR8_N'
p3006
g2
tp3007
a(S'NOT1STGEN_YR8_N'
p3008
g2
tp3009
a(S'DEBT_MDN'
p3010
g2
tp3011
a(S'GRAD_DEBT_MDN'
p3012
g2
tp3013
a(S'WDRAW_DEBT_MDN'
p3014
g2
tp3015
a(S'LO_INC_DEBT_MDN'
p3016
g2
tp3017
a(S'MD_INC_DEBT_MDN'
p3018
g2
tp3019
a(S'HI_INC_DEBT_MDN'
p3020
g2
tp3021
a(S'DEP_DEBT_MDN'
p3022
g2
tp3023
a(S'IND_DEBT_MDN'
p3024
g2
tp3025
a(S'PELL_DEBT_MDN'
p3026
g2
tp3027
a(S'NOPELL_DEBT_MDN'
p3028
g2
tp3029
a(S'FEMALE_DEBT_MDN'
p3030
g2
tp3031
a(S'MALE_DEBT_MDN'
p3032
g2
tp3033
a(S'FIRSTGEN_DEBT_MDN'
p3034
g2
tp3035
a(S'NOTFIRSTGEN_DEBT_MDN'
p3036
g2
tp3037
a(S'DEBT_N'
p3038
g2
tp3039
a(S'GRAD_DEBT_N'
p3040
g2
tp3041
a(S'WDRAW_DEBT_N'
p3042
g2
tp3043
a(S'LO_INC_DEBT_N'
p3044
g2
tp3045
a(S'MD_INC_DEBT_N'
p3046
g2
tp3047
a(S'HI_INC_DEBT_N'
p3048
g2
tp3049
a(S'DEP_DEBT_N'
p3050
g2
tp3051
a(S'IND_DEBT_N'
p3052
g2
tp3053
a(S'PELL_DEBT_N'
p3054
g2
tp3055
a(S'NOPELL_DEBT_N'
p3056
g2
tp3057
a(S'FEMALE_DEBT_N'
p3058
g2
tp3059
a(S'MALE_DEBT_N'
p3060
g2
tp3061
a(S'FIRSTGEN_DEBT_N'
p3062
g2
tp3063
a(S'NOTFIRSTGEN_DEBT_N'
p3064
g2
tp3065
a(S'GRAD_DEBT_MDN10YR'
p3066
g2
tp3067
a(S'CUML_DEBT_N'
p3068
g2
tp3069
a(S'CUML_DEBT_P90'
p3070
g2
tp3071
a(S'CUML_DEBT_P75'
p3072
g2
tp3073
a(S'CUML_DEBT_P25'
p3074
g2
tp3075
a(S'CUML_DEBT_P10'
p3076
g2
tp3077
a(S'INC_N'
p3078
g2
tp3079
a(S'DEP_INC_N'
p3080
g2
tp3081
a(S'IND_INC_N'
p3082
g2
tp3083
a(S'DEP_STAT_N'
p3084
g2
tp3085
a(S'PAR_ED_N'
p3086
g2
tp3087
a(S'APPL_SCH_N'
p3088
g2
tp3089
a(S'REPAY_DT_MDN'
p3090
g2
tp3091
a(S'SEPAR_DT_MDN'
p3092
g2
tp3093
a(S'REPAY_DT_N'
p3094
g2
tp3095
a(S'SEPAR_DT_N'
p3096
g2
tp3097
a(S'RPY_1YR_N'
p3098
g2
tp3099
a(S'COMPL_RPY_1YR_N'
p3100
g79
tp3101
a(S'NONCOM_RPY_1YR_N'
p3102
g79
tp3103
a(S'LO_INC_RPY_1YR_N'
p3104
g79
tp3105
a(S'MD_INC_RPY_1YR_N'
p3106
g79
tp3107
a(S'HI_INC_RPY_1YR_N'
p3108
g79
tp3109
a(S'DEP_RPY_1YR_N'
p3110
g79
tp3111
a(S'IND_RPY_1YR_N'
p3112
g79
tp3113
a(S'PELL_RPY_1YR_N'
p3114
g79
tp3115
a(S'NOPELL_RPY_1YR_N'
p3116
g79
tp3117
a(S'FEMALE_RPY_1YR_N'
p3118
g79
tp3119
a(S'MALE_RPY_1YR_N'
p3120
g79
tp3121
a(S'FIRSTGEN_RPY_1YR_N'
p3122
g79
tp3123
a(S'NOTFIRSTGEN_RPY_1YR_N'
p3124
g79
tp3125
a(S'RPY_3YR_N'
p3126
g2
tp3127
a(S'COMPL_RPY_3YR_N'
p3128
g79
tp3129
a(S'NONCOM_RPY_3YR_N'
p3130
g79
tp3131
a(S'LO_INC_RPY_3YR_N'
p3132
g79
tp3133
a(S'MD_INC_RPY_3YR_N'
p3134
g79
tp3135
a(S'HI_INC_RPY_3YR_N'
p3136
g79
tp3137
a(S'DEP_RPY_3YR_N'
p3138
g79
tp3139
a(S'IND_RPY_3YR_N'
p3140
g79
tp3141
a(S'PELL_RPY_3YR_N'
p3142
g79
tp3143
a(S'NOPELL_RPY_3YR_N'
p3144
g79
tp3145
a(S'FEMALE_RPY_3YR_N'
p3146
g79
tp3147
a(S'MALE_RPY_3YR_N'
p3148
g79
tp3149
a(S'FIRSTGEN_RPY_3YR_N'
p3150
g79
tp3151
a(S'NOTFIRSTGEN_RPY_3YR_N'
p3152
g79
tp3153
a(S'RPY_5YR_N'
p3154
g2
tp3155
a(S'COMPL_RPY_5YR_N'
p3156
g79
tp3157
a(S'NONCOM_RPY_5YR_N'
p3158
g79
tp3159
a(S'LO_INC_RPY_5YR_N'
p3160
g79
tp3161
a(S'MD_INC_RPY_5YR_N'
p3162
g79
tp3163
a(S'HI_INC_RPY_5YR_N'
p3164
g79
tp3165
a(S'DEP_RPY_5YR_N'
p3166
g79
tp3167
a(S'IND_RPY_5YR_N'
p3168
g79
tp3169
a(S'PELL_RPY_5YR_N'
p3170
g79
tp3171
a(S'NOPELL_RPY_5YR_N'
p3172
g79
tp3173
a(S'FEMALE_RPY_5YR_N'
p3174
g79
tp3175
a(S'MALE_RPY_5YR_N'
p3176
g79
tp3177
a(S'FIRSTGEN_RPY_5YR_N'
p3178
g79
tp3179
a(S'NOTFIRSTGEN_RPY_5YR_N'
p3180
g79
tp3181
a(S'RPY_7YR_N'
p3182
g2
tp3183
a(S'COMPL_RPY_7YR_N'
p3184
g79
tp3185
a(S'NONCOM_RPY_7YR_N'
p3186
g79
tp3187
a(S'LO_INC_RPY_7YR_N'
p3188
g79
tp3189
a(S'MD_INC_RPY_7YR_N'
p3190
g79
tp3191
a(S'HI_INC_RPY_7YR_N'
p3192
g79
tp3193
a(S'DEP_RPY_7YR_N'
p3194
g79
tp3195
a(S'IND_RPY_7YR_N'
p3196
g79
tp3197
a(S'PELL_RPY_7YR_N'
p3198
g79
tp3199
a(S'NOPELL_RPY_7YR_N'
p3200
g79
tp3201
a(S'FEMALE_RPY_7YR_N'
p3202
g79
tp3203
a(S'MALE_RPY_7YR_N'
p3204
g79
tp3205
a(S'FIRSTGEN_RPY_7YR_N'
p3206
g79
tp3207
a(S'NOTFIRSTGEN_RPY_7YR_N'
p3208
g79
tp3209
a(S'COUNT_ED'
p3210
g2
tp3211
a(S'LOAN_EVER'
p3212
g2
tp3213
a(S'PELL_EVER'
p3214
g2
tp3215
a(S'AGE_ENTRY'
p3216
g2
tp3217
a(S'AGE_ENTRY_SQ'
p3218
g2
tp3219
a(S'AGEGE24'
p3220
g2
tp3221
a(S'FEMALE'
p3222
g2
tp3223
a(S'MARRIED'
p3224
g2
tp3225
a(S'DEPENDENT'
p3226
g2
tp3227
a(S'VETERAN'
p3228
g2
tp3229
a(S'FIRST_GEN'
p3230
g2
tp3231
a(S'FAMINC'
p3232
g2
tp3233
a(S'MD_FAMINC'
p3234
g2
tp3235
a(S'FAMINC_IND'
p3236
g2
tp3237
a(S'LNFAMINC'
p3238
g2
tp3239
a(S'LNFAMINC_IND'
p3240
g2
tp3241
a(S'PCT_WHITE'
p3242
g2
tp3243
a(S'PCT_BLACK'
p3244
g2
tp3245
a(S'PCT_ASIAN'
p3246
g2
tp3247
a(S'PCT_HISPANIC'
p3248
g2
tp3249
a(S'PCT_BA'
p3250
g2
tp3251
a(S'PCT_GRAD_PROF'
p3252
g2
tp3253
a(S'PCT_BORN_US'
p3254
g2
tp3255
a(S'MEDIAN_HH_INC'
p3256
g2
tp3257
a(S'POVERTY_RATE'
p3258
g2
tp3259
a(S'UNEMP_RATE'
p3260
g2
tp3261
a(S'LN_MEDIAN_HH_INC'
p3262
g2
tp3263
a(S'FSEND_COUNT'
p3264
g2
tp3265
a(S'FSEND_1'
p3266
g2
tp3267
a(S'FSEND_2'
p3268
g2
tp3269
a(S'FSEND_3'
p3270
g2
tp3271
a(S'FSEND_4'
p3272
g2
tp3273
a(S'FSEND_5'
p3274
g2
tp3275
a(S'COUNT_NWNE_P10'
p3276
g2
tp3277
a(S'COUNT_WNE_P10'
p3278
g2
tp3279
a(S'MN_EARN_WNE_P10'
p3280
g202
tp3281
a(S'MD_EARN_WNE_P10'
p3282
g202
tp3283
a(S'PCT10_EARN_WNE_P10'
p3284
g2
tp3285
a(S'PCT25_EARN_WNE_P10'
p3286
g2
tp3287
a(S'PCT75_EARN_WNE_P10'
p3288
g2
tp3289
a(S'PCT90_EARN_WNE_P10'
p3290
g2
tp3291
a(S'SD_EARN_WNE_P10'
p3292
g2
tp3293
a(S'COUNT_WNE_INC1_P10'
p3294
g2
tp3295
a(S'COUNT_WNE_INC2_P10'
p3296
g2
tp3297
a(S'COUNT_WNE_INC3_P10'
p3298
g2
tp3299
a(S'COUNT_WNE_INDEP0_INC1_P10'
p3300
g2
tp3301
a(S'COUNT_WNE_INDEP0_P10'
p3302
g2
tp3303
a(S'COUNT_WNE_INDEP1_P10'
p3304
g2
tp3305
a(S'COUNT_WNE_MALE0_P10'
p3306
g2
tp3307
a(S'COUNT_WNE_MALE1_P10'
p3308
g2
tp3309
a(S'GT_25K_P10'
p3310
g2
tp3311
a(S'MN_EARN_WNE_INC1_P10'
p3312
g202
tp3313
a(S'MN_EARN_WNE_INC2_P10'
p3314
g202
tp3315
a(S'MN_EARN_WNE_INC3_P10'
p3316
g202
tp3317
a(S'MN_EARN_WNE_INDEP0_INC1_P10'
p3318
g202
tp3319
a(S'MN_EARN_WNE_INDEP0_P10'
p3320
g202
tp3321
a(S'MN_EARN_WNE_INDEP1_P10'
p3322
g202
tp3323
a(S'MN_EARN_WNE_MALE0_P10'
p3324
g202
tp3325
a(S'MN_EARN_WNE_MALE1_P10'
p3326
g202
tp3327
a(S'COUNT_NWNE_P6'
p3328
g2
tp3329
a(S'COUNT_WNE_P6'
p3330
g2
tp3331
a(S'MN_EARN_WNE_P6'
p3332
g202
tp3333
a(S'MD_EARN_WNE_P6'
p3334
g202
tp3335
a(S'PCT10_EARN_WNE_P6'
p3336
g2
tp3337
a(S'PCT25_EARN_WNE_P6'
p3338
g2
tp3339
a(S'PCT75_EARN_WNE_P6'
p3340
g2
tp3341
a(S'PCT90_EARN_WNE_P6'
p3342
g2
tp3343
a(S'SD_EARN_WNE_P6'
p3344
g2
tp3345
a(S'COUNT_WNE_INC1_P6'
p3346
g2
tp3347
a(S'COUNT_WNE_INC2_P6'
p3348
g2
tp3349
a(S'COUNT_WNE_INC3_P6'
p3350
g2
tp3351
a(S'COUNT_WNE_INDEP0_INC1_P6'
p3352
g2
tp3353
a(S'COUNT_WNE_INDEP0_P6'
p3354
g2
tp3355
a(S'COUNT_WNE_INDEP1_P6'
p3356
g2
tp3357
a(S'COUNT_WNE_MALE0_P6'
p3358
g2
tp3359
a(S'COUNT_WNE_MALE1_P6'
p3360
g2
tp3361
a(S'GT_25K_P6'
p3362
g2
tp3363
a(S'MN_EARN_WNE_INC1_P6'
p3364
g202
tp3365
a(S'MN_EARN_WNE_INC2_P6'
p3366
g202
tp3367
a(S'MN_EARN_WNE_INC3_P6'
p3368
g202
tp3369
a(S'MN_EARN_WNE_INDEP0_INC1_P6'
p3370
g202
tp3371
a(S'MN_EARN_WNE_INDEP0_P6'
p3372
g202
tp3373
a(S'MN_EARN_WNE_INDEP1_P6'
p3374
g202
tp3375
a(S'MN_EARN_WNE_MALE0_P6'
p3376
g202
tp3377
a(S'MN_EARN_WNE_MALE1_P6'
p3378
g202
tp3379
a(S'COUNT_NWNE_P7'
p3380
g2
tp3381
a(S'COUNT_WNE_P7'
p3382
g2
tp3383
a(S'MN_EARN_WNE_P7'
p3384
g202
tp3385
a(S'SD_EARN_WNE_P7'
p3386
g2
tp3387
a(S'GT_25K_P7'
p3388
g2
tp3389
a(S'COUNT_NWNE_P8'
p3390
g2
tp3391
a(S'COUNT_WNE_P8'
p3392
g2
tp3393
a(S'MN_EARN_WNE_P8'
p3394
g202
tp3395
a(S'MD_EARN_WNE_P8'
p3396
g202
tp3397
a(S'PCT10_EARN_WNE_P8'
p3398
g2
tp3399
a(S'PCT25_EARN_WNE_P8'
p3400
g2
tp3401
a(S'PCT75_EARN_WNE_P8'
p3402
g2
tp3403
a(S'PCT90_EARN_WNE_P8'
p3404
g2
tp3405
a(S'SD_EARN_WNE_P8'
p3406
g2
tp3407
a(S'GT_25K_P8'
p3408
g2
tp3409
a(S'COUNT_NWNE_P9'
p3410
g2
tp3411
a(S'COUNT_WNE_P9'
p3412
g2
tp3413
a(S'MN_EARN_WNE_P9'
p3414
g202
tp3415
a(S'SD_EARN_WNE_P9'
p3416
g2
tp3417
a(S'GT_25K_P9'
p3418
g2
tp3419
a(S'DEBT_MDN_SUPP'
p3420
g2
tp3421
a(S'GRAD_DEBT_MDN_SUPP'
p3422
g2
tp3423
a(S'GRAD_DEBT_MDN10YR_SUPP'
p3424
g2
tp3425
a(S'RPY_3YR_RT_SUPP'
p3426
g2
tp3427
a(S'LO_INC_RPY_3YR_RT_SUPP'
p3428
g79
tp3429
a(S'MD_INC_RPY_3YR_RT_SUPP'
p3430
g79
tp3431
a(S'HI_INC_RPY_3YR_RT_SUPP'
p3432
g79
tp3433
a(S'COMPL_RPY_3YR_RT_SUPP'
p3434
g79
tp3435
a(S'NONCOM_RPY_3YR_RT_SUPP'
p3436
g79
tp3437
a(S'DEP_RPY_3YR_RT_SUPP'
p3438
g79
tp3439
a(S'IND_RPY_3YR_RT_SUPP'
p3440
g79
tp3441
a(S'PELL_RPY_3YR_RT_SUPP'
p3442
g79
tp3443
a(S'NOPELL_RPY_3YR_RT_SUPP'
p3444
g79
tp3445
a(S'FEMALE_RPY_3YR_RT_SUPP'
p3446
g79
tp3447
a(S'MALE_RPY_3YR_RT_SUPP'
p3448
g79
tp3449
a(S'FIRSTGEN_RPY_3YR_RT_SUPP'
p3450
g79
tp3451
a(S'NOTFIRSTGEN_RPY_3YR_RT_SUPP'
p3452
g79
tp3453
a(S'C150_L4_POOLED_SUPP'
p3454
g79
tp3455
a(S'C150_4_POOLED_SUPP'
p3456
g79
tp3457
a(S'C200_L4_POOLED_SUPP'
p3458
g79
tp3459
a(S'C200_4_POOLED_SUPP'
p3460
g79
tp3461
a(S'ALIAS'
p3462
g2
tp3463
a(S'C100_4'
p3464
g2
tp3465
a(S'D100_4'
p3466
g2
tp3467
a(S'C100_L4'
p3468
g2
tp3469
a(S'D100_L4'
p3470
g2
tp3471
a(S'TRANS_4'
p3472
g2
tp3473
a(S'DTRANS_4'
p3474
g2
tp3475
a(S'TRANS_L4'
p3476
g2
tp3477
a(S'DTRANS_L4'
p3478
g2
tp3479
a(S'ICLEVEL'
p3480
g2
tp3481
a(S'UGDS_MEN'
p3482
g79
tp3483
a(S'UGDS_WOMEN'
p3484
g79
tp3485
a(S'CDR3_DENOM'
p3486
g2
tp3487
a(S'CDR2_DENOM'
p3488
g2
tp3489
a.